ccopy_reg
_reconstructor
p0
(cLOTlib.FiniteBestSet
FiniteBestSet
p1
c__builtin__
object
p2
Ntp3
Rp4
(dp5
S'max_multiplier'
p6
I1
sS'max'
p7
I01
sS'self'
p8
g4
sS'N'
p9
I10000
sS'Q'
p10
(lp11
g0
(cLOTlib.FiniteBestSet
QueueItem
p12
g2
Ntp13
Rp14
(dp15
S'priority'
p16
F-inf
sS'x'
p17
g0
(cLOTlib.Examples.Number.Shared
NumberExpression
p18
g2
Ntp19
Rp20
(dp21
S'll_decay'
p22
F0.0
sS'proposal_function'
p23
g0
(cLOTlib.Proposals
RegenerationProposal
p24
g2
Ntp25
Rp26
(dp27
g8
g26
sS'grammar'
p28
(iLOTlib.Grammar
Grammar
p29
(dp30
S'BV_RESAMPLE_P'
p31
F1.0
sS'rules'
p32
ccollections
defaultdict
p33
(c__builtin__
list
p34
tp35
Rp36
S'WORD'
p37
(lp38
(iLOTlib.GrammarRule
GrammarRule
p39
(dp40
S'name'
p41
S'if_'
p42
sS'p'
p43
F0.5
sg8
g39
sS'resample_p'
p44
F1.0
sS'to'
p45
(lp46
S'BOOL'
p47
ag37
ag37
asS'lp'
p48
F-0.6931471805599453
sS'rid'
p49
I5
sS'bv_args'
p50
NsS'nt'
p51
g37
sS'bv_name'
p52
Nsba(iLOTlib.GrammarRule
GrammarRule
p53
(dp54
g41
S'ifU_'
p55
sg43
F0.5
sg8
g53
sg44
F1.0
sg45
(lp56
g47
ag37
asg48
F-0.6931471805599453
sg49
I6
sg50
Nsg51
g37
sg52
Nsba(iLOTlib.GrammarRule
GrammarRule
p57
(dp58
g41
S'L_'
p59
sg43
F1.0
sg8
g57
sg44
F1.0
sg45
(lp60
S'SET'
p61
asg48
F0.0
sg49
I16
sg50
Nsg51
g37
sg52
Nsba(iLOTlib.GrammarRule
GrammarRule
p62
(dp63
g41
S'next_'
p64
sg43
F1.0
sg8
g62
sg44
F1.0
sg45
(lp65
g37
asg48
F0.0
sg49
I17
sg50
Nsg51
g37
sg52
Nsba(iLOTlib.GrammarRule
GrammarRule
p66
(dp67
g41
S'prev_'
p68
sg43
F1.0
sg8
g66
sg44
F1.0
sg45
(lp69
g37
asg48
F0.0
sg49
I18
sg50
Nsg51
g37
sg52
Nsba(iLOTlib.GrammarRule
GrammarRule
p70
(dp71
g41
S'one_'
p72
sg43
F0.1
sg8
g70
sg44
F1.0
sg45
Nsg48
F-2.3025850929940455
sg49
I19
sg50
Nsg51
g37
sg52
Nsba(iLOTlib.GrammarRule
GrammarRule
p73
(dp74
g41
S'two_'
p75
sg43
F0.1
sg8
g73
sg44
F1.0
sg45
Nsg48
F-2.3025850929940455
sg49
I20
sg50
Nsg51
g37
sg52
Nsba(iLOTlib.GrammarRule
GrammarRule
p76
(dp77
g41
S'three_'
p78
sg43
F0.1
sg8
g76
sg44
F1.0
sg45
Nsg48
F-2.3025850929940455
sg49
I21
sg50
Nsg51
g37
sg52
Nsba(iLOTlib.GrammarRule
GrammarRule
p79
(dp80
g41
S'four_'
p81
sg43
F0.1
sg8
g79
sg44
F1.0
sg45
Nsg48
F-2.3025850929940455
sg49
I22
sg50
Nsg51
g37
sg52
Nsba(iLOTlib.GrammarRule
GrammarRule
p82
(dp83
g41
S'five_'
p84
sg43
F0.1
sg8
g82
sg44
F1.0
sg45
Nsg48
F-2.3025850929940455
sg49
I23
sg50
Nsg51
g37
sg52
Nsba(iLOTlib.GrammarRule
GrammarRule
p85
(dp86
g41
S'six_'
p87
sg43
F0.1
sg8
g85
sg44
F1.0
sg45
Nsg48
F-2.3025850929940455
sg49
I24
sg50
Nsg51
g37
sg52
Nsba(iLOTlib.GrammarRule
GrammarRule
p88
(dp89
g41
S'seven_'
p90
sg43
F0.1
sg8
g88
sg44
F1.0
sg45
Nsg48
F-2.3025850929940455
sg49
I25
sg50
Nsg51
g37
sg52
Nsba(iLOTlib.GrammarRule
GrammarRule
p91
(dp92
g41
S'eight_'
p93
sg43
F0.1
sg8
g91
sg44
F1.0
sg45
Nsg48
F-2.3025850929940455
sg49
I26
sg50
Nsg51
g37
sg52
Nsba(iLOTlib.GrammarRule
GrammarRule
p94
(dp95
g41
S'nine_'
p96
sg43
F0.1
sg8
g94
sg44
F1.0
sg45
Nsg48
F-2.3025850929940455
sg49
I27
sg50
Nsg51
g37
sg52
Nsba(iLOTlib.GrammarRule
GrammarRule
p97
(dp98
g41
S'ten_'
p99
sg43
F0.1
sg8
g97
sg44
F1.0
sg45
Nsg48
F-2.3025850929940455
sg49
I28
sg50
Nsg51
g37
sg52
Nsbasg61
(lp100
(iLOTlib.GrammarRule
GrammarRule
p101
(dp102
g41
S'union_'
p103
sg43
F0.3333333333333333
sg8
g101
sg44
F1.0
sg45
(lp104
g61
ag61
asg48
F-1.0986122886681098
sg49
I11
sg50
Nsg51
g61
sg52
Nsba(iLOTlib.GrammarRule
GrammarRule
p105
(dp106
g41
S'intersection_'
p107
sg43
F0.3333333333333333
sg8
g105
sg44
F1.0
sg45
(lp108
g61
ag61
asg48
F-1.0986122886681098
sg49
I12
sg50
Nsg51
g61
sg52
Nsba(iLOTlib.GrammarRule
GrammarRule
p109
(dp110
g41
S'setdifference_'
p111
sg43
F0.3333333333333333
sg8
g109
sg44
F1.0
sg45
(lp112
g61
ag61
asg48
F-1.0986122886681098
sg49
I13
sg50
Nsg51
g61
sg52
Nsba(iLOTlib.GrammarRule
GrammarRule
p113
(dp114
g41
S'select_'
p115
sg43
F1.0
sg8
g113
sg44
F1.0
sg45
(lp116
g61
asg48
F0.0
sg49
I14
sg50
Nsg51
g61
sg52
Nsba(iLOTlib.GrammarRule
GrammarRule
p117
(dp118
g41
g17
sg43
F4.0
sg8
g117
sg44
F1.0
sg45
Nsg48
F1.3862943611198906
sg49
I15
sg50
Nsg51
g61
sg52
Nsbasg47
(lp119
(iLOTlib.GrammarRule
GrammarRule
p120
(dp121
g41
S'and_'
p122
sg43
F0.3333333333333333
sg8
g120
sg44
F1.0
sg45
(lp123
g47
ag47
asg48
F-1.0986122886681098
sg49
I0
sg50
Nsg51
g47
sg52
Nsba(iLOTlib.GrammarRule
GrammarRule
p124
(dp125
g41
S'or_'
p126
sg43
F0.3333333333333333
sg8
g124
sg44
F1.0
sg45
(lp127
g47
ag47
asg48
F-1.0986122886681098
sg49
I1
sg50
Nsg51
g47
sg52
Nsba(iLOTlib.GrammarRule
GrammarRule
p128
(dp129
g41
S'not_'
p130
sg43
F0.3333333333333333
sg8
g128
sg44
F1.0
sg45
(lp131
g47
asg48
F-1.0986122886681098
sg49
I2
sg50
Nsg51
g47
sg52
Nsba(iLOTlib.GrammarRule
GrammarRule
p132
(dp133
g41
S'True'
p134
sg43
F0.5
sg8
g132
sg44
F1.0
sg45
Nsg48
F-0.6931471805599453
sg49
I3
sg50
Nsg51
g47
sg52
Nsba(iLOTlib.GrammarRule
GrammarRule
p135
(dp136
g41
S'False'
p137
sg43
F0.5
sg8
g135
sg44
F1.0
sg45
Nsg48
F-0.6931471805599453
sg49
I4
sg50
Nsg51
g47
sg52
Nsba(iLOTlib.GrammarRule
GrammarRule
p138
(dp139
g41
S'cardinality1_'
p140
sg43
F1.0
sg8
g138
sg44
F1.0
sg45
(lp141
g61
asg48
F0.0
sg49
I7
sg50
Nsg51
g47
sg52
Nsba(iLOTlib.GrammarRule
GrammarRule
p142
(dp143
g41
S'cardinality2_'
p144
sg43
F1.0
sg8
g142
sg44
F1.0
sg45
(lp145
g61
asg48
F0.0
sg49
I8
sg50
Nsg51
g47
sg52
Nsba(iLOTlib.GrammarRule
GrammarRule
p146
(dp147
g41
S'cardinality3_'
p148
sg43
F1.0
sg8
g146
sg44
F1.0
sg45
(lp149
g61
asg48
F0.0
sg49
I9
sg50
Nsg51
g47
sg52
Nsba(iLOTlib.GrammarRule
GrammarRule
p150
(dp151
g41
S'equal_'
p152
sg43
F1.0
sg8
g150
sg44
F1.0
sg45
(lp153
g37
ag37
asg48
F0.0
sg49
I10
sg50
Nsg51
g47
sg52
Nsbassg8
g29
sS'rule_count'
p154
I29
sS'bv_rule_id'
p155
I0
sS'BV_P'
p156
F10.0
sS'bv_count'
p157
I0
sbsbsS'args'
p158
(lp159
g17
asS'maxnodes'
p160
I25
sS'rrAlpha'
p161
F1.0
sS'likelihood'
p162
F0.0
sg28
g29
sS'stored_likelihood'
p163
Nsg8
g20
sS'f'
p164
NsS'value'
p165
g0
(cLOTlib.FunctionNode
FunctionNode
p166
g2
Ntp167
Rp168
(dp169
g41
g55
sS'ruleid'
p170
I6
sg8
g168
sg158
(lp171
g0
(g166
g2
Ntp172
Rp173
(dp174
g41
g148
sg170
I9
sg8
g173
sg158
(lp175
g0
(g166
g2
Ntp176
Rp177
(dp178
g41
g115
sg170
I14
sg8
g177
sg158
(lp179
g0
(g166
g2
Ntp180
Rp181
(dp182
g41
g17
sg170
I15
sg8
g181
sg158
Nsg44
F1.0
sg48
cnumpy.core.multiarray
scalar
p183
(cnumpy
dtype
p184
(S'f8'
p185
I0
I1
tp186
Rp187
(I3
S'<'
p188
NNNI-1
I-1
I0
tp189
bS'L\x98\xbf\xec#\xf3\xd9\xbf'
p190
tp191
Rp192
sS'returntype'
p193
g61
sg50
Nsg52
Nsbasg44
F1.0
sg48
g183
(g187
S'\x02 *\xfa\x0b\xab\xfc\xbf'
p194
tp195
Rp196
sg193
g61
sg50
Nsg52
Nsbasg44
F1.0
sg48
g183
(g187
S'\x02 *\xfa\x0b\xab\xfc\xbf'
p197
tp198
Rp199
sg193
g47
sg50
Nsg52
Nsbag0
(g166
g2
Ntp200
Rp201
(dp202
g41
g68
sg170
I18
sg8
g201
sg158
(lp203
g0
(g166
g2
Ntp204
Rp205
(dp206
g41
g42
sg170
I5
sg8
g205
sg158
(lp207
g0
(g166
g2
Ntp208
Rp209
(dp210
g41
g152
sg170
I10
sg8
g209
sg158
(lp211
g0
(g166
g2
Ntp212
Rp213
(dp214
g41
g68
sg170
I18
sg8
g213
sg158
(lp215
g0
(g166
g2
Ntp216
Rp217
(dp218
g41
g55
sg170
I6
sg8
g217
sg158
(lp219
g0
(g166
g2
Ntp220
Rp221
(dp222
g41
g137
sg170
I4
sg8
g221
sg158
Nsg44
F1.0
sg48
g183
(g187
S'}\x9e\xd3\xbc\x16\xe1\x03\xc0'
p223
tp224
Rp225
sg193
g47
sg50
Nsg52
Nsbag0
(g166
g2
Ntp226
Rp227
(dp228
g41
g68
sg170
I18
sg8
g227
sg158
(lp229
g0
(g166
g2
Ntp230
Rp231
(dp232
g41
g64
sg170
I17
sg8
g231
sg158
(lp233
g0
(g166
g2
Ntp234
Rp235
(dp236
g41
g99
sg170
I28
sg8
g235
sg158
Nsg44
F1.0
sg48
g183
(g187
S'\xad\x1b\xac\xb7\xd2K\x0f\xc0'
p237
tp238
Rp239
sg193
g37
sg50
Nsg52
Nsbasg44
F1.0
sg48
g183
(g187
S'0\x8d\xed\xf7A\xc0\xf9\xbf'
p240
tp241
Rp242
sg193
g37
sg50
Nsg52
Nsbasg44
F1.0
sg48
g183
(g187
S'0\x8d\xed\xf7A\xc0\xf9\xbf'
p243
tp244
Rp245
sg193
g37
sg50
Nsg52
Nsbasg44
F1.0
sg48
g183
(g187
S'\x14U\xb5\xbb\xb1k\x02\xc0'
p246
tp247
Rp248
sg193
g37
sg50
Nsg52
Nsbasg44
F1.0
sg48
g183
(g187
S'0\x8d\xed\xf7A\xc0\xf9\xbf'
p249
tp250
Rp251
sg193
g37
sg50
Nsg52
Nsbag0
(g166
g2
Ntp252
Rp253
(dp254
g41
g96
sg170
I27
sg8
g253
sg158
Nsg44
F1.0
sg48
g183
(g187
S'\xad\x1b\xac\xb7\xd2K\x0f\xc0'
p255
tp256
Rp257
sg193
g37
sg50
Nsg52
Nsbasg44
F1.0
sg48
g183
(g187
S'\x02 *\xfa\x0b\xab\xfc\xbf'
p258
tp259
Rp260
sg193
g47
sg50
Nsg52
Nsbag0
(g166
g2
Ntp261
Rp262
(dp263
g41
g64
sg170
I17
sg8
g262
sg158
(lp264
g0
(g166
g2
Ntp265
Rp266
(dp267
g41
g90
sg170
I25
sg8
g266
sg158
Nsg44
F1.0
sg48
g183
(g187
S'\xad\x1b\xac\xb7\xd2K\x0f\xc0'
p268
tp269
Rp270
sg193
g37
sg50
Nsg52
Nsbasg44
F1.0
sg48
g183
(g187
S'0\x8d\xed\xf7A\xc0\xf9\xbf'
p271
tp272
Rp273
sg193
g37
sg50
Nsg52
Nsbag0
(g166
g2
Ntp274
Rp275
(dp276
g41
g96
sg170
I27
sg8
g275
sg158
Nsg44
F1.0
sg48
g183
(g187
S'\xad\x1b\xac\xb7\xd2K\x0f\xc0'
p277
tp278
Rp279
sg193
g37
sg50
Nsg52
Nsbasg44
F1.0
sg48
g183
(g187
S'\x14U\xb5\xbb\xb1k\x02\xc0'
p280
tp281
Rp282
sg193
g37
sg50
Nsg52
Nsbasg44
F1.0
sg48
g183
(g187
S'0\x8d\xed\xf7A\xc0\xf9\xbf'
p283
tp284
Rp285
sg193
g37
sg50
Nsg52
Nsbasg44
F1.0
sg48
g183
(g187
S'\x14U\xb5\xbb\xb1k\x02\xc0'
p286
tp287
Rp288
sg193
g37
sg50
Nsg52
NsbsS'rrPrior'
p289
I00
sS'start'
p290
S'START'
p291
sS'prior_temperature'
p292
F1.0
sg48
F-inf
sS'v'
p293
NsS'ALPHA'
p294
F0.9
sS'prior'
p295
F-inf
sS'fvalue'
p296
Nsbsbag0
(g12
g2
Ntp297
Rp298
(dp299
g16
g183
(g187
S'\xc4\x85\xa5\xef\xa7\xc8\x86\xc0'
p300
tp301
Rp302
sg17
g0
(g18
g2
Ntp303
Rp304
(dp305
g22
F0.0
sg23
g26
sg158
(lp306
g17
asg160
I25
sg161
F1.0
sg162
F-690.7755278982115
sg28
(iLOTlib.Grammar
Grammar
p307
(dp308
g157
I0
sg155
I0
sg31
F1.0
sg32
g33
(g34
tp309
Rp310
g47
(lp311
(iLOTlib.GrammarRule
GrammarRule
p312
(dp313
g41
g122
sg43
F0.3333333333333333
sg8
g312
sg44
F1.0
sg45
(lp314
g47
ag47
asg48
F-1.0986122886681098
sg49
I0
sg50
Nsg51
g47
sg52
Nsba(iLOTlib.GrammarRule
GrammarRule
p315
(dp316
g41
g126
sg43
F0.3333333333333333
sg8
g315
sg44
F1.0
sg45
(lp317
g47
ag47
asg48
F-1.0986122886681098
sg49
I1
sg50
Nsg51
g47
sg52
Nsba(iLOTlib.GrammarRule
GrammarRule
p318
(dp319
g41
g130
sg43
F0.3333333333333333
sg8
g318
sg44
F1.0
sg45
(lp320
g47
asg48
F-1.0986122886681098
sg49
I2
sg50
Nsg51
g47
sg52
Nsba(iLOTlib.GrammarRule
GrammarRule
p321
(dp322
g41
g134
sg43
F0.5
sg8
g321
sg44
F1.0
sg45
Nsg48
F-0.6931471805599453
sg49
I3
sg50
Nsg51
g47
sg52
Nsba(iLOTlib.GrammarRule
GrammarRule
p323
(dp324
g41
g137
sg43
F0.5
sg8
g323
sg44
F1.0
sg45
Nsg48
F-0.6931471805599453
sg49
I4
sg50
Nsg51
g47
sg52
Nsba(iLOTlib.GrammarRule
GrammarRule
p325
(dp326
g41
g140
sg43
F1.0
sg8
g325
sg44
F1.0
sg45
(lp327
g61
asg48
F0.0
sg49
I7
sg50
Nsg51
g47
sg52
Nsba(iLOTlib.GrammarRule
GrammarRule
p328
(dp329
g41
g144
sg43
F1.0
sg8
g328
sg44
F1.0
sg45
(lp330
g61
asg48
F0.0
sg49
I8
sg50
Nsg51
g47
sg52
Nsba(iLOTlib.GrammarRule
GrammarRule
p331
(dp332
g41
g148
sg43
F1.0
sg8
g331
sg44
F1.0
sg45
(lp333
g61
asg48
F0.0
sg49
I9
sg50
Nsg51
g47
sg52
Nsba(iLOTlib.GrammarRule
GrammarRule
p334
(dp335
g41
g152
sg43
F1.0
sg8
g334
sg44
F1.0
sg45
(lp336
g37
ag37
asg48
F0.0
sg49
I10
sg50
Nsg51
g47
sg52
Nsbasg61
(lp337
(iLOTlib.GrammarRule
GrammarRule
p338
(dp339
g41
g103
sg43
F0.3333333333333333
sg8
g338
sg44
F1.0
sg45
(lp340
g61
ag61
asg48
F-1.0986122886681098
sg49
I11
sg50
Nsg51
g61
sg52
Nsba(iLOTlib.GrammarRule
GrammarRule
p341
(dp342
g41
g107
sg43
F0.3333333333333333
sg8
g341
sg44
F1.0
sg45
(lp343
g61
ag61
asg48
F-1.0986122886681098
sg49
I12
sg50
Nsg51
g61
sg52
Nsba(iLOTlib.GrammarRule
GrammarRule
p344
(dp345
g41
g111
sg43
F0.3333333333333333
sg8
g344
sg44
F1.0
sg45
(lp346
g61
ag61
asg48
F-1.0986122886681098
sg49
I13
sg50
Nsg51
g61
sg52
Nsba(iLOTlib.GrammarRule
GrammarRule
p347
(dp348
g41
g115
sg43
F1.0
sg8
g347
sg44
F1.0
sg45
(lp349
g61
asg48
F0.0
sg49
I14
sg50
Nsg51
g61
sg52
Nsba(iLOTlib.GrammarRule
GrammarRule
p350
(dp351
g41
g17
sg43
F4.0
sg8
g350
sg44
F1.0
sg45
Nsg48
F1.3862943611198906
sg49
I15
sg50
Nsg51
g61
sg52
Nsbasg37
(lp352
(iLOTlib.GrammarRule
GrammarRule
p353
(dp354
g41
g42
sg43
F0.5
sg8
g353
sg44
F1.0
sg45
(lp355
g47
ag37
ag37
asg48
F-0.6931471805599453
sg49
I5
sg50
Nsg51
g37
sg52
Nsba(iLOTlib.GrammarRule
GrammarRule
p356
(dp357
g41
g55
sg43
F0.5
sg8
g356
sg44
F1.0
sg45
(lp358
g47
ag37
asg48
F-0.6931471805599453
sg49
I6
sg50
Nsg51
g37
sg52
Nsba(iLOTlib.GrammarRule
GrammarRule
p359
(dp360
g41
g59
sg43
F1.0
sg8
g359
sg44
F1.0
sg45
(lp361
g61
asg48
F0.0
sg49
I16
sg50
Nsg51
g37
sg52
Nsba(iLOTlib.GrammarRule
GrammarRule
p362
(dp363
g41
g64
sg43
F1.0
sg8
g362
sg44
F1.0
sg45
(lp364
g37
asg48
F0.0
sg49
I17
sg50
Nsg51
g37
sg52
Nsba(iLOTlib.GrammarRule
GrammarRule
p365
(dp366
g41
g68
sg43
F1.0
sg8
g365
sg44
F1.0
sg45
(lp367
g37
asg48
F0.0
sg49
I18
sg50
Nsg51
g37
sg52
Nsba(iLOTlib.GrammarRule
GrammarRule
p368
(dp369
g41
g72
sg43
F0.1
sg8
g368
sg44
F1.0
sg45
Nsg48
F-2.3025850929940455
sg49
I19
sg50
Nsg51
g37
sg52
Nsba(iLOTlib.GrammarRule
GrammarRule
p370
(dp371
g41
g75
sg43
F0.1
sg8
g370
sg44
F1.0
sg45
Nsg48
F-2.3025850929940455
sg49
I20
sg50
Nsg51
g37
sg52
Nsba(iLOTlib.GrammarRule
GrammarRule
p372
(dp373
g41
g78
sg43
F0.1
sg8
g372
sg44
F1.0
sg45
Nsg48
F-2.3025850929940455
sg49
I21
sg50
Nsg51
g37
sg52
Nsba(iLOTlib.GrammarRule
GrammarRule
p374
(dp375
g41
g81
sg43
F0.1
sg8
g374
sg44
F1.0
sg45
Nsg48
F-2.3025850929940455
sg49
I22
sg50
Nsg51
g37
sg52
Nsba(iLOTlib.GrammarRule
GrammarRule
p376
(dp377
g41
g84
sg43
F0.1
sg8
g376
sg44
F1.0
sg45
Nsg48
F-2.3025850929940455
sg49
I23
sg50
Nsg51
g37
sg52
Nsba(iLOTlib.GrammarRule
GrammarRule
p378
(dp379
g41
g87
sg43
F0.1
sg8
g378
sg44
F1.0
sg45
Nsg48
F-2.3025850929940455
sg49
I24
sg50
Nsg51
g37
sg52
Nsba(iLOTlib.GrammarRule
GrammarRule
p380
(dp381
g41
g90
sg43
F0.1
sg8
g380
sg44
F1.0
sg45
Nsg48
F-2.3025850929940455
sg49
I25
sg50
Nsg51
g37
sg52
Nsba(iLOTlib.GrammarRule
GrammarRule
p382
(dp383
g41
g93
sg43
F0.1
sg8
g382
sg44
F1.0
sg45
Nsg48
F-2.3025850929940455
sg49
I26
sg50
Nsg51
g37
sg52
Nsba(iLOTlib.GrammarRule
GrammarRule
p384
(dp385
g41
g96
sg43
F0.1
sg8
g384
sg44
F1.0
sg45
Nsg48
F-2.3025850929940455
sg49
I27
sg50
Nsg51
g37
sg52
Nsba(iLOTlib.GrammarRule
GrammarRule
p386
(dp387
g41
g99
sg43
F0.1
sg8
g386
sg44
F1.0
sg45
Nsg48
F-2.3025850929940455
sg49
I28
sg50
Nsg51
g37
sg52
Nsbassg156
F10.0
sg8
g307
sg154
I29
sbsg163
(lp388
F-2.3025850929940455
aF-2.3025850929940455
aF-2.3025850929940455
aF-2.3025850929940455
aF-2.3025850929940455
aF-2.3025850929940455
aF-2.3025850929940455
aF-2.3025850929940455
aF-2.3025850929940455
aF-2.3025850929940455
aF-2.3025850929940455
aF-2.3025850929940455
aF-2.3025850929940455
aF-2.3025850929940455
aF-2.3025850929940455
aF-2.3025850929940455
aF-2.3025850929940455
aF-2.3025850929940455
aF-2.3025850929940455
aF-2.3025850929940455
aF-2.3025850929940455
aF-2.3025850929940455
aF-2.3025850929940455
aF-2.3025850929940455
aF-2.3025850929940455
aF-2.3025850929940455
aF-2.3025850929940455
aF-2.3025850929940455
aF-2.3025850929940455
aF-2.3025850929940455
aF-2.3025850929940455
aF-2.3025850929940455
aF-2.3025850929940455
aF-2.3025850929940455
aF-2.3025850929940455
aF-2.3025850929940455
aF-2.3025850929940455
aF-2.3025850929940455
aF-2.3025850929940455
aF-2.3025850929940455
aF-2.3025850929940455
aF-2.3025850929940455
aF-2.3025850929940455
aF-2.3025850929940455
aF-2.3025850929940455
aF-2.3025850929940455
aF-2.3025850929940455
aF-2.3025850929940455
aF-2.3025850929940455
aF-2.3025850929940455
aF-2.3025850929940455
aF-2.3025850929940455
aF-2.3025850929940455
aF-2.3025850929940455
aF-2.3025850929940455
aF-2.3025850929940455
aF-2.3025850929940455
aF-2.3025850929940455
aF-2.3025850929940455
aF-2.3025850929940455
aF-2.3025850929940455
aF-2.3025850929940455
aF-2.3025850929940455
aF-2.3025850929940455
aF-2.3025850929940455
aF-2.3025850929940455
aF-2.3025850929940455
aF-2.3025850929940455
aF-2.3025850929940455
aF-2.3025850929940455
aF-2.3025850929940455
aF-2.3025850929940455
aF-2.3025850929940455
aF-2.3025850929940455
aF-2.3025850929940455
aF-2.3025850929940455
aF-2.3025850929940455
aF-2.3025850929940455
aF-2.3025850929940455
aF-2.3025850929940455
aF-2.3025850929940455
aF-2.3025850929940455
aF-2.3025850929940455
aF-2.3025850929940455
aF-2.3025850929940455
aF-2.3025850929940455
aF-2.3025850929940455
aF-2.3025850929940455
aF-2.3025850929940455
aF-2.3025850929940455
aF-2.3025850929940455
aF-2.3025850929940455
aF-2.3025850929940455
aF-2.3025850929940455
aF-2.3025850929940455
aF-2.3025850929940455
aF-2.3025850929940455
aF-2.3025850929940455
aF-2.3025850929940455
aF-2.3025850929940455
aF-2.3025850929940455
aF-2.3025850929940455
aF-2.3025850929940455
aF-2.3025850929940455
aF-2.3025850929940455
aF-2.3025850929940455
aF-2.3025850929940455
aF-2.3025850929940455
aF-2.3025850929940455
aF-2.3025850929940455
aF-2.3025850929940455
aF-2.3025850929940455
aF-2.3025850929940455
aF-2.3025850929940455
aF-2.3025850929940455
aF-2.3025850929940455
aF-2.3025850929940455
aF-2.3025850929940455
aF-2.3025850929940455
aF-2.3025850929940455
aF-2.3025850929940455
aF-2.3025850929940455
aF-2.3025850929940455
aF-2.3025850929940455
aF-2.3025850929940455
aF-2.3025850929940455
aF-2.3025850929940455
aF-2.3025850929940455
aF-2.3025850929940455
aF-2.3025850929940455
aF-2.3025850929940455
aF-2.3025850929940455
aF-2.3025850929940455
aF-2.3025850929940455
aF-2.3025850929940455
aF-2.3025850929940455
aF-2.3025850929940455
aF-2.3025850929940455
aF-2.3025850929940455
aF-2.3025850929940455
aF-2.3025850929940455
aF-2.3025850929940455
aF-2.3025850929940455
aF-2.3025850929940455
aF-2.3025850929940455
aF-2.3025850929940455
aF-2.3025850929940455
aF-2.3025850929940455
aF-2.3025850929940455
aF-2.3025850929940455
aF-2.3025850929940455
aF-2.3025850929940455
aF-2.3025850929940455
aF-2.3025850929940455
aF-2.3025850929940455
aF-2.3025850929940455
aF-2.3025850929940455
aF-2.3025850929940455
aF-2.3025850929940455
aF-2.3025850929940455
aF-2.3025850929940455
aF-2.3025850929940455
aF-2.3025850929940455
aF-2.3025850929940455
aF-2.3025850929940455
aF-2.3025850929940455
aF-2.3025850929940455
aF-2.3025850929940455
aF-2.3025850929940455
aF-2.3025850929940455
aF-2.3025850929940455
aF-2.3025850929940455
aF-2.3025850929940455
aF-2.3025850929940455
aF-2.3025850929940455
aF-2.3025850929940455
aF-2.3025850929940455
aF-2.3025850929940455
aF-2.3025850929940455
aF-2.3025850929940455
aF-2.3025850929940455
aF-2.3025850929940455
aF-2.3025850929940455
aF-2.3025850929940455
aF-2.3025850929940455
aF-2.3025850929940455
aF-2.3025850929940455
aF-2.3025850929940455
aF-2.3025850929940455
aF-2.3025850929940455
aF-2.3025850929940455
aF-2.3025850929940455
aF-2.3025850929940455
aF-2.3025850929940455
aF-2.3025850929940455
aF-2.3025850929940455
aF-2.3025850929940455
aF-2.3025850929940455
aF-2.3025850929940455
aF-2.3025850929940455
aF-2.3025850929940455
aF-2.3025850929940455
aF-2.3025850929940455
aF-2.3025850929940455
aF-2.3025850929940455
aF-2.3025850929940455
aF-2.3025850929940455
aF-2.3025850929940455
aF-2.3025850929940455
aF-2.3025850929940455
aF-2.3025850929940455
aF-2.3025850929940455
aF-2.3025850929940455
aF-2.3025850929940455
aF-2.3025850929940455
aF-2.3025850929940455
aF-2.3025850929940455
aF-2.3025850929940455
aF-2.3025850929940455
aF-2.3025850929940455
aF-2.3025850929940455
aF-2.3025850929940455
aF-2.3025850929940455
aF-2.3025850929940455
aF-2.3025850929940455
aF-2.3025850929940455
aF-2.3025850929940455
aF-2.3025850929940455
aF-2.3025850929940455
aF-2.3025850929940455
aF-2.3025850929940455
aF-2.3025850929940455
aF-2.3025850929940455
aF-2.3025850929940455
aF-2.3025850929940455
aF-2.3025850929940455
aF-2.3025850929940455
aF-2.3025850929940455
aF-2.3025850929940455
aF-2.3025850929940455
aF-2.3025850929940455
aF-2.3025850929940455
aF-2.3025850929940455
aF-2.3025850929940455
aF-2.3025850929940455
aF-2.3025850929940455
aF-2.3025850929940455
aF-2.3025850929940455
aF-2.3025850929940455
aF-2.3025850929940455
aF-2.3025850929940455
aF-2.3025850929940455
aF-2.3025850929940455
aF-2.3025850929940455
aF-2.3025850929940455
aF-2.3025850929940455
aF-2.3025850929940455
aF-2.3025850929940455
aF-2.3025850929940455
aF-2.3025850929940455
aF-2.3025850929940455
aF-2.3025850929940455
aF-2.3025850929940455
aF-2.3025850929940455
aF-2.3025850929940455
aF-2.3025850929940455
aF-2.3025850929940455
aF-2.3025850929940455
aF-2.3025850929940455
aF-2.3025850929940455
aF-2.3025850929940455
aF-2.3025850929940455
aF-2.3025850929940455
aF-2.3025850929940455
aF-2.3025850929940455
aF-2.3025850929940455
aF-2.3025850929940455
aF-2.3025850929940455
aF-2.3025850929940455
aF-2.3025850929940455
aF-2.3025850929940455
aF-2.3025850929940455
aF-2.3025850929940455
aF-2.3025850929940455
aF-2.3025850929940455
aF-2.3025850929940455
aF-2.3025850929940455
aF-2.3025850929940455
aF-2.3025850929940455
aF-2.3025850929940455
aF-2.3025850929940455
aF-2.3025850929940455
aF-2.3025850929940455
aF-2.3025850929940455
aF-2.3025850929940455
aF-2.3025850929940455
aF-2.3025850929940455
aF-2.3025850929940455
aF-2.3025850929940455
aF-2.3025850929940455
asg8
g0
(g18
g2
Ntp389
Rp390
(dp391
g22
F0.0
sg23
g0
(g24
g2
Ntp392
Rp393
(dp394
g8
g393
sg28
(iLOTlib.Grammar
Grammar
p395
(dp396
g157
I0
sg155
I0
sg31
F1.0
sg32
g33
(g34
tp397
Rp398
g47
(lp399
(iLOTlib.GrammarRule
GrammarRule
p400
(dp401
g41
g122
sg43
F0.3333333333333333
sg8
g400
sg44
F1.0
sg45
(lp402
g47
ag47
asg48
F-1.0986122886681098
sg49
I0
sg50
Nsg51
g47
sg52
Nsba(iLOTlib.GrammarRule
GrammarRule
p403
(dp404
g41
g126
sg43
F0.3333333333333333
sg8
g403
sg44
F1.0
sg45
(lp405
g47
ag47
asg48
F-1.0986122886681098
sg49
I1
sg50
Nsg51
g47
sg52
Nsba(iLOTlib.GrammarRule
GrammarRule
p406
(dp407
g41
g130
sg43
F0.3333333333333333
sg8
g406
sg44
F1.0
sg45
(lp408
g47
asg48
F-1.0986122886681098
sg49
I2
sg50
Nsg51
g47
sg52
Nsba(iLOTlib.GrammarRule
GrammarRule
p409
(dp410
g41
g134
sg43
F0.5
sg8
g409
sg44
F1.0
sg45
Nsg48
F-0.6931471805599453
sg49
I3
sg50
Nsg51
g47
sg52
Nsba(iLOTlib.GrammarRule
GrammarRule
p411
(dp412
g41
g137
sg43
F0.5
sg8
g411
sg44
F1.0
sg45
Nsg48
F-0.6931471805599453
sg49
I4
sg50
Nsg51
g47
sg52
Nsba(iLOTlib.GrammarRule
GrammarRule
p413
(dp414
g41
g140
sg43
F1.0
sg8
g413
sg44
F1.0
sg45
(lp415
g61
asg48
F0.0
sg49
I7
sg50
Nsg51
g47
sg52
Nsba(iLOTlib.GrammarRule
GrammarRule
p416
(dp417
g41
g144
sg43
F1.0
sg8
g416
sg44
F1.0
sg45
(lp418
g61
asg48
F0.0
sg49
I8
sg50
Nsg51
g47
sg52
Nsba(iLOTlib.GrammarRule
GrammarRule
p419
(dp420
g41
g148
sg43
F1.0
sg8
g419
sg44
F1.0
sg45
(lp421
g61
asg48
F0.0
sg49
I9
sg50
Nsg51
g47
sg52
Nsba(iLOTlib.GrammarRule
GrammarRule
p422
(dp423
g41
g152
sg43
F1.0
sg8
g422
sg44
F1.0
sg45
(lp424
g37
ag37
asg48
F0.0
sg49
I10
sg50
Nsg51
g47
sg52
Nsbasg61
(lp425
(iLOTlib.GrammarRule
GrammarRule
p426
(dp427
g41
g103
sg43
F0.3333333333333333
sg8
g426
sg44
F1.0
sg45
(lp428
g61
ag61
asg48
F-1.0986122886681098
sg49
I11
sg50
Nsg51
g61
sg52
Nsba(iLOTlib.GrammarRule
GrammarRule
p429
(dp430
g41
g107
sg43
F0.3333333333333333
sg8
g429
sg44
F1.0
sg45
(lp431
g61
ag61
asg48
F-1.0986122886681098
sg49
I12
sg50
Nsg51
g61
sg52
Nsba(iLOTlib.GrammarRule
GrammarRule
p432
(dp433
g41
g111
sg43
F0.3333333333333333
sg8
g432
sg44
F1.0
sg45
(lp434
g61
ag61
asg48
F-1.0986122886681098
sg49
I13
sg50
Nsg51
g61
sg52
Nsba(iLOTlib.GrammarRule
GrammarRule
p435
(dp436
g41
g115
sg43
F1.0
sg8
g435
sg44
F1.0
sg45
(lp437
g61
asg48
F0.0
sg49
I14
sg50
Nsg51
g61
sg52
Nsba(iLOTlib.GrammarRule
GrammarRule
p438
(dp439
g41
g17
sg43
F4.0
sg8
g438
sg44
F1.0
sg45
Nsg48
F1.3862943611198906
sg49
I15
sg50
Nsg51
g61
sg52
Nsbasg37
(lp440
(iLOTlib.GrammarRule
GrammarRule
p441
(dp442
g41
g42
sg43
F0.5
sg8
g441
sg44
F1.0
sg45
(lp443
g47
ag37
ag37
asg48
F-0.6931471805599453
sg49
I5
sg50
Nsg51
g37
sg52
Nsba(iLOTlib.GrammarRule
GrammarRule
p444
(dp445
g41
g55
sg43
F0.5
sg8
g444
sg44
F1.0
sg45
(lp446
g47
ag37
asg48
F-0.6931471805599453
sg49
I6
sg50
Nsg51
g37
sg52
Nsba(iLOTlib.GrammarRule
GrammarRule
p447
(dp448
g41
g59
sg43
F1.0
sg8
g447
sg44
F1.0
sg45
(lp449
g61
asg48
F0.0
sg49
I16
sg50
Nsg51
g37
sg52
Nsba(iLOTlib.GrammarRule
GrammarRule
p450
(dp451
g41
g64
sg43
F1.0
sg8
g450
sg44
F1.0
sg45
(lp452
g37
asg48
F0.0
sg49
I17
sg50
Nsg51
g37
sg52
Nsba(iLOTlib.GrammarRule
GrammarRule
p453
(dp454
g41
g68
sg43
F1.0
sg8
g453
sg44
F1.0
sg45
(lp455
g37
asg48
F0.0
sg49
I18
sg50
Nsg51
g37
sg52
Nsba(iLOTlib.GrammarRule
GrammarRule
p456
(dp457
g41
g72
sg43
F0.1
sg8
g456
sg44
F1.0
sg45
Nsg48
F-2.3025850929940455
sg49
I19
sg50
Nsg51
g37
sg52
Nsba(iLOTlib.GrammarRule
GrammarRule
p458
(dp459
g41
g75
sg43
F0.1
sg8
g458
sg44
F1.0
sg45
Nsg48
F-2.3025850929940455
sg49
I20
sg50
Nsg51
g37
sg52
Nsba(iLOTlib.GrammarRule
GrammarRule
p460
(dp461
g41
g78
sg43
F0.1
sg8
g460
sg44
F1.0
sg45
Nsg48
F-2.3025850929940455
sg49
I21
sg50
Nsg51
g37
sg52
Nsba(iLOTlib.GrammarRule
GrammarRule
p462
(dp463
g41
g81
sg43
F0.1
sg8
g462
sg44
F1.0
sg45
Nsg48
F-2.3025850929940455
sg49
I22
sg50
Nsg51
g37
sg52
Nsba(iLOTlib.GrammarRule
GrammarRule
p464
(dp465
g41
g84
sg43
F0.1
sg8
g464
sg44
F1.0
sg45
Nsg48
F-2.3025850929940455
sg49
I23
sg50
Nsg51
g37
sg52
Nsba(iLOTlib.GrammarRule
GrammarRule
p466
(dp467
g41
g87
sg43
F0.1
sg8
g466
sg44
F1.0
sg45
Nsg48
F-2.3025850929940455
sg49
I24
sg50
Nsg51
g37
sg52
Nsba(iLOTlib.GrammarRule
GrammarRule
p468
(dp469
g41
g90
sg43
F0.1
sg8
g468
sg44
F1.0
sg45
Nsg48
F-2.3025850929940455
sg49
I25
sg50
Nsg51
g37
sg52
Nsba(iLOTlib.GrammarRule
GrammarRule
p470
(dp471
g41
g93
sg43
F0.1
sg8
g470
sg44
F1.0
sg45
Nsg48
F-2.3025850929940455
sg49
I26
sg50
Nsg51
g37
sg52
Nsba(iLOTlib.GrammarRule
GrammarRule
p472
(dp473
g41
g96
sg43
F0.1
sg8
g472
sg44
F1.0
sg45
Nsg48
F-2.3025850929940455
sg49
I27
sg50
Nsg51
g37
sg52
Nsba(iLOTlib.GrammarRule
GrammarRule
p474
(dp475
g41
g99
sg43
F0.1
sg8
g474
sg44
F1.0
sg45
Nsg48
F-2.3025850929940455
sg49
I28
sg50
Nsg51
g37
sg52
Nsbassg156
F10.0
sg8
g395
sg154
I29
sbsbsg158
(lp476
g17
asg160
I25
sg161
F1.0
sg162
F0.0
sg28
g395
sg164
Nsg8
g390
sg163
Nsg165
g0
(g166
g2
Ntp477
Rp478
(dp479
g41
g55
sg170
I6
sg8
g478
sg158
(lp480
g0
(g166
g2
Ntp481
Rp482
(dp483
g41
g148
sg170
I9
sg8
g482
sg158
(lp484
g0
(g166
g2
Ntp485
Rp486
(dp487
g41
g115
sg170
I14
sg8
g486
sg158
(lp488
g0
(g166
g2
Ntp489
Rp490
(dp491
g41
g17
sg170
I15
sg8
g490
sg158
Nsg44
F1.0
sg48
g183
(g187
S'L\x98\xbf\xec#\xf3\xd9\xbf'
p492
tp493
Rp494
sg193
g61
sg50
Nsg52
Nsbasg44
F1.0
sg48
g183
(g187
S'\x02 *\xfa\x0b\xab\xfc\xbf'
p495
tp496
Rp497
sg193
g61
sg50
Nsg52
Nsbasg44
F1.0
sg48
g183
(g187
S'\x02 *\xfa\x0b\xab\xfc\xbf'
p498
tp499
Rp500
sg193
g47
sg50
Nsg52
Nsbag0
(g166
g2
Ntp501
Rp502
(dp503
g41
g68
sg170
I18
sg8
g502
sg158
(lp504
g0
(g166
g2
Ntp505
Rp506
(dp507
g41
g42
sg170
I5
sg8
g506
sg158
(lp508
g0
(g166
g2
Ntp509
Rp510
(dp511
g41
g152
sg170
I10
sg8
g510
sg158
(lp512
g0
(g166
g2
Ntp513
Rp514
(dp515
g41
g68
sg170
I18
sg8
g514
sg158
(lp516
g0
(g166
g2
Ntp517
Rp518
(dp519
g41
g55
sg170
I6
sg8
g518
sg158
(lp520
g0
(g166
g2
Ntp521
Rp522
(dp523
g41
g137
sg170
I4
sg8
g522
sg158
Nsg44
F1.0
sg48
g183
(g187
S'}\x9e\xd3\xbc\x16\xe1\x03\xc0'
p524
tp525
Rp526
sg193
g47
sg50
Nsg52
Nsbag0
(g166
g2
Ntp527
Rp528
(dp529
g41
g68
sg170
I18
sg8
g528
sg158
(lp530
g0
(g166
g2
Ntp531
Rp532
(dp533
g41
g64
sg170
I17
sg8
g532
sg158
(lp534
g0
(g166
g2
Ntp535
Rp536
(dp537
g41
g99
sg170
I28
sg8
g536
sg158
Nsg44
F1.0
sg48
g183
(g187
S'\xad\x1b\xac\xb7\xd2K\x0f\xc0'
p538
tp539
Rp540
sg193
g37
sg50
Nsg52
Nsbasg44
F1.0
sg48
g183
(g187
S'0\x8d\xed\xf7A\xc0\xf9\xbf'
p541
tp542
Rp543
sg193
g37
sg50
Nsg52
Nsbasg44
F1.0
sg48
g183
(g187
S'0\x8d\xed\xf7A\xc0\xf9\xbf'
p544
tp545
Rp546
sg193
g37
sg50
Nsg52
Nsbasg44
F1.0
sg48
g183
(g187
S'\x14U\xb5\xbb\xb1k\x02\xc0'
p547
tp548
Rp549
sg193
g37
sg50
Nsg52
Nsbasg44
F1.0
sg48
g183
(g187
S'0\x8d\xed\xf7A\xc0\xf9\xbf'
p550
tp551
Rp552
sg193
g37
sg50
Nsg52
Nsbag0
(g166
g2
Ntp553
Rp554
(dp555
g41
g96
sg170
I27
sg8
g554
sg158
Nsg44
F1.0
sg48
g183
(g187
S'\xad\x1b\xac\xb7\xd2K\x0f\xc0'
p556
tp557
Rp558
sg193
g37
sg50
Nsg52
Nsbasg44
F1.0
sg48
g183
(g187
S'\x02 *\xfa\x0b\xab\xfc\xbf'
p559
tp560
Rp561
sg193
g47
sg50
Nsg52
Nsbag0
(g166
g2
Ntp562
Rp563
(dp564
g41
g64
sg170
I17
sg8
g563
sg158
(lp565
g0
(g166
g2
Ntp566
Rp567
(dp568
g41
g90
sg170
I25
sg8
g567
sg158
Nsg44
F1.0
sg48
g183
(g187
S'\xad\x1b\xac\xb7\xd2K\x0f\xc0'
p569
tp570
Rp571
sg193
g37
sg50
Nsg52
Nsbasg44
F1.0
sg48
g183
(g187
S'0\x8d\xed\xf7A\xc0\xf9\xbf'
p572
tp573
Rp574
sg193
g37
sg50
Nsg52
Nsbag0
(g166
g2
Ntp575
Rp576
(dp577
g41
g96
sg170
I27
sg8
g576
sg158
Nsg44
F1.0
sg48
g183
(g187
S'\xad\x1b\xac\xb7\xd2K\x0f\xc0'
p578
tp579
Rp580
sg193
g37
sg50
Nsg52
Nsbasg44
F1.0
sg48
g183
(g187
S'\x14U\xb5\xbb\xb1k\x02\xc0'
p581
tp582
Rp583
sg193
g37
sg50
Nsg52
Nsbasg44
F1.0
sg48
g183
(g187
S'0\x8d\xed\xf7A\xc0\xf9\xbf'
p584
tp585
Rp586
sg193
g37
sg50
Nsg52
Nsbasg44
F1.0
sg48
g183
(g187
S'\x14U\xb5\xbb\xb1k\x02\xc0'
p587
tp588
Rp589
sg193
g37
sg50
Nsg52
Nsbsg289
I00
sg295
F-inf
sg292
F1.0
sg48
F-inf
sg293
Nsg294
F0.9
sg290
g291
sg296
Nsbsg164
Nsg165
g0
(g166
g2
Ntp590
Rp591
(dp592
g41
g55
sg170
I6
sg8
g591
sg158
(lp593
g0
(g166
g2
Ntp594
Rp595
(dp596
g41
g148
sg170
I9
sg8
g595
sg158
(lp597
g0
(g166
g2
Ntp598
Rp599
(dp600
g41
g115
sg170
I14
sg8
g599
sg158
(lp601
g0
(g166
g2
Ntp602
Rp603
(dp604
g41
g17
sg170
I15
sg8
g603
sg158
Nsg44
F1.0
sg48
g192
sg193
g61
sg50
Nsg52
Nsbasg44
F1.0
sg48
g196
sg193
g61
sg50
Nsg52
Nsbasg44
F1.0
sg48
g199
sg193
g47
sg50
Nsg52
Nsbag0
(g166
g2
Ntp605
Rp606
(dp607
g41
g59
sg170
I16
sg8
g0
(g166
g2
Ntp608
Rp609
(dp610
g41
g59
sg170
I16
sg8
g609
sg158
(lp611
g0
(g166
g2
Ntp612
Rp613
(dp614
g41
g17
sg170
I15
sg8
g613
sg158
Nsg44
F1.0
sg48
g183
(g187
S'L\x98\xbf\xec#\xf3\xd9\xbf'
p615
tp616
Rp617
sg193
g61
sg50
Nsg52
Nsbasg44
F1.0
sg48
g183
(g187
S'0\x8d\xed\xf7A\xc0\xf9\xbf'
p618
tp619
Rp620
sg193
g37
sg50
Nsg52
Nsbsg158
g611
sg44
F1.0
sg48
g620
sg193
g37
sg50
Nsg52
Nsbasg44
F1.0
sg48
g288
sg193
g37
sg50
Nsg52
Nsbsg289
I00
sg290
g291
sg292
F1.0
sg48
g183
(g187
S'\xc4\x85\xa5\xef\xa7\xc8\x86\xc0'
p621
tp622
Rp623
sg293
Nsg294
F0.9
sg295
g183
(g187
S"\x1cb\xd0z:'C\xc0"
p624
tp625
Rp626
sg296
Nsbsbag0
(g12
g2
Ntp627
Rp628
(dp629
g16
g183
(g187
S'x\xb7\x91w\xf74\x81\xc0'
p630
tp631
Rp632
sg17
g0
(g18
g2
Ntp633
Rp634
(dp635
g22
F0.0
sg23
g26
sg158
(lp636
g17
asg160
I25
sg161
F1.0
sg162
F-543.4899346986147
sg28
(iLOTlib.Grammar
Grammar
p637
(dp638
g157
I0
sg155
I0
sg31
F1.0
sg32
g33
(g34
tp639
Rp640
g37
(lp641
(iLOTlib.GrammarRule
GrammarRule
p642
(dp643
g41
g42
sg43
F0.5
sg8
g642
sg44
F1.0
sg45
(lp644
g47
ag37
ag37
asg48
F-0.6931471805599453
sg49
I5
sg50
Nsg51
g37
sg52
Nsba(iLOTlib.GrammarRule
GrammarRule
p645
(dp646
g41
g55
sg43
F0.5
sg8
g645
sg44
F1.0
sg45
(lp647
g47
ag37
asg48
F-0.6931471805599453
sg49
I6
sg50
Nsg51
g37
sg52
Nsba(iLOTlib.GrammarRule
GrammarRule
p648
(dp649
g41
g59
sg43
F1.0
sg8
g648
sg44
F1.0
sg45
(lp650
g61
asg48
F0.0
sg49
I16
sg50
Nsg51
g37
sg52
Nsba(iLOTlib.GrammarRule
GrammarRule
p651
(dp652
g41
g64
sg43
F1.0
sg8
g651
sg44
F1.0
sg45
(lp653
g37
asg48
F0.0
sg49
I17
sg50
Nsg51
g37
sg52
Nsba(iLOTlib.GrammarRule
GrammarRule
p654
(dp655
g41
g68
sg43
F1.0
sg8
g654
sg44
F1.0
sg45
(lp656
g37
asg48
F0.0
sg49
I18
sg50
Nsg51
g37
sg52
Nsba(iLOTlib.GrammarRule
GrammarRule
p657
(dp658
g41
g72
sg43
F0.1
sg8
g657
sg44
F1.0
sg45
Nsg48
F-2.3025850929940455
sg49
I19
sg50
Nsg51
g37
sg52
Nsba(iLOTlib.GrammarRule
GrammarRule
p659
(dp660
g41
g75
sg43
F0.1
sg8
g659
sg44
F1.0
sg45
Nsg48
F-2.3025850929940455
sg49
I20
sg50
Nsg51
g37
sg52
Nsba(iLOTlib.GrammarRule
GrammarRule
p661
(dp662
g41
g78
sg43
F0.1
sg8
g661
sg44
F1.0
sg45
Nsg48
F-2.3025850929940455
sg49
I21
sg50
Nsg51
g37
sg52
Nsba(iLOTlib.GrammarRule
GrammarRule
p663
(dp664
g41
g81
sg43
F0.1
sg8
g663
sg44
F1.0
sg45
Nsg48
F-2.3025850929940455
sg49
I22
sg50
Nsg51
g37
sg52
Nsba(iLOTlib.GrammarRule
GrammarRule
p665
(dp666
g41
g84
sg43
F0.1
sg8
g665
sg44
F1.0
sg45
Nsg48
F-2.3025850929940455
sg49
I23
sg50
Nsg51
g37
sg52
Nsba(iLOTlib.GrammarRule
GrammarRule
p667
(dp668
g41
g87
sg43
F0.1
sg8
g667
sg44
F1.0
sg45
Nsg48
F-2.3025850929940455
sg49
I24
sg50
Nsg51
g37
sg52
Nsba(iLOTlib.GrammarRule
GrammarRule
p669
(dp670
g41
g90
sg43
F0.1
sg8
g669
sg44
F1.0
sg45
Nsg48
F-2.3025850929940455
sg49
I25
sg50
Nsg51
g37
sg52
Nsba(iLOTlib.GrammarRule
GrammarRule
p671
(dp672
g41
g93
sg43
F0.1
sg8
g671
sg44
F1.0
sg45
Nsg48
F-2.3025850929940455
sg49
I26
sg50
Nsg51
g37
sg52
Nsba(iLOTlib.GrammarRule
GrammarRule
p673
(dp674
g41
g96
sg43
F0.1
sg8
g673
sg44
F1.0
sg45
Nsg48
F-2.3025850929940455
sg49
I27
sg50
Nsg51
g37
sg52
Nsba(iLOTlib.GrammarRule
GrammarRule
p675
(dp676
g41
g99
sg43
F0.1
sg8
g675
sg44
F1.0
sg45
Nsg48
F-2.3025850929940455
sg49
I28
sg50
Nsg51
g37
sg52
Nsbasg61
(lp677
(iLOTlib.GrammarRule
GrammarRule
p678
(dp679
g41
g103
sg43
F0.3333333333333333
sg8
g678
sg44
F1.0
sg45
(lp680
g61
ag61
asg48
F-1.0986122886681098
sg49
I11
sg50
Nsg51
g61
sg52
Nsba(iLOTlib.GrammarRule
GrammarRule
p681
(dp682
g41
g107
sg43
F0.3333333333333333
sg8
g681
sg44
F1.0
sg45
(lp683
g61
ag61
asg48
F-1.0986122886681098
sg49
I12
sg50
Nsg51
g61
sg52
Nsba(iLOTlib.GrammarRule
GrammarRule
p684
(dp685
g41
g111
sg43
F0.3333333333333333
sg8
g684
sg44
F1.0
sg45
(lp686
g61
ag61
asg48
F-1.0986122886681098
sg49
I13
sg50
Nsg51
g61
sg52
Nsba(iLOTlib.GrammarRule
GrammarRule
p687
(dp688
g41
g115
sg43
F1.0
sg8
g687
sg44
F1.0
sg45
(lp689
g61
asg48
F0.0
sg49
I14
sg50
Nsg51
g61
sg52
Nsba(iLOTlib.GrammarRule
GrammarRule
p690
(dp691
g41
g17
sg43
F4.0
sg8
g690
sg44
F1.0
sg45
Nsg48
F1.3862943611198906
sg49
I15
sg50
Nsg51
g61
sg52
Nsbasg47
(lp692
(iLOTlib.GrammarRule
GrammarRule
p693
(dp694
g41
g122
sg43
F0.3333333333333333
sg8
g693
sg44
F1.0
sg45
(lp695
g47
ag47
asg48
F-1.0986122886681098
sg49
I0
sg50
Nsg51
g47
sg52
Nsba(iLOTlib.GrammarRule
GrammarRule
p696
(dp697
g41
g126
sg43
F0.3333333333333333
sg8
g696
sg44
F1.0
sg45
(lp698
g47
ag47
asg48
F-1.0986122886681098
sg49
I1
sg50
Nsg51
g47
sg52
Nsba(iLOTlib.GrammarRule
GrammarRule
p699
(dp700
g41
g130
sg43
F0.3333333333333333
sg8
g699
sg44
F1.0
sg45
(lp701
g47
asg48
F-1.0986122886681098
sg49
I2
sg50
Nsg51
g47
sg52
Nsba(iLOTlib.GrammarRule
GrammarRule
p702
(dp703
g41
g134
sg43
F0.5
sg8
g702
sg44
F1.0
sg45
Nsg48
F-0.6931471805599453
sg49
I3
sg50
Nsg51
g47
sg52
Nsba(iLOTlib.GrammarRule
GrammarRule
p704
(dp705
g41
g137
sg43
F0.5
sg8
g704
sg44
F1.0
sg45
Nsg48
F-0.6931471805599453
sg49
I4
sg50
Nsg51
g47
sg52
Nsba(iLOTlib.GrammarRule
GrammarRule
p706
(dp707
g41
g140
sg43
F1.0
sg8
g706
sg44
F1.0
sg45
(lp708
g61
asg48
F0.0
sg49
I7
sg50
Nsg51
g47
sg52
Nsba(iLOTlib.GrammarRule
GrammarRule
p709
(dp710
g41
g144
sg43
F1.0
sg8
g709
sg44
F1.0
sg45
(lp711
g61
asg48
F0.0
sg49
I8
sg50
Nsg51
g47
sg52
Nsba(iLOTlib.GrammarRule
GrammarRule
p712
(dp713
g41
g148
sg43
F1.0
sg8
g712
sg44
F1.0
sg45
(lp714
g61
asg48
F0.0
sg49
I9
sg50
Nsg51
g47
sg52
Nsba(iLOTlib.GrammarRule
GrammarRule
p715
(dp716
g41
g152
sg43
F1.0
sg8
g715
sg44
F1.0
sg45
(lp717
g37
ag37
asg48
F0.0
sg49
I10
sg50
Nsg51
g47
sg52
Nsbassg156
F10.0
sg8
g637
sg154
I29
sbsg163
(lp718
F-3.6888794541139363
aF-3.6888794541139363
aF-0.25489224962879004
aF-3.6888794541139363
aF-0.25489224962879004
aF-3.6888794541139363
aF-3.6888794541139363
aF-0.25489224962879004
aF-3.6888794541139363
aF-0.25489224962879004
aF-3.6888794541139363
aF-3.6888794541139363
aF-3.6888794541139363
aF-0.25489224962879004
aF-3.6888794541139363
aF-3.6888794541139363
aF-0.25489224962879004
aF-3.6888794541139363
aF-0.25489224962879004
aF-0.25489224962879004
aF-3.6888794541139363
aF-0.25489224962879004
aF-3.6888794541139363
aF-0.25489224962879004
aF-0.25489224962879004
aF-0.25489224962879004
aF-0.25489224962879004
aF-0.25489224962879004
aF-3.6888794541139363
aF-0.25489224962879004
aF-0.25489224962879004
aF-3.6888794541139363
aF-0.25489224962879004
aF-3.6888794541139363
aF-0.25489224962879004
aF-3.6888794541139363
aF-3.6888794541139363
aF-3.6888794541139363
aF-3.6888794541139363
aF-0.25489224962879004
aF-0.25489224962879004
aF-3.6888794541139363
aF-3.6888794541139363
aF-0.25489224962879004
aF-3.6888794541139363
aF-0.25489224962879004
aF-0.25489224962879004
aF-0.25489224962879004
aF-3.6888794541139363
aF-3.6888794541139363
aF-3.6888794541139363
aF-3.6888794541139363
aF-3.6888794541139363
aF-3.6888794541139363
aF-0.25489224962879004
aF-3.6888794541139363
aF-3.6888794541139363
aF-0.25489224962879004
aF-3.6888794541139363
aF-0.25489224962879004
aF-0.25489224962879004
aF-0.25489224962879004
aF-3.6888794541139363
aF-3.6888794541139363
aF-3.6888794541139363
aF-3.6888794541139363
aF-3.6888794541139363
aF-3.6888794541139363
aF-0.25489224962879004
aF-3.6888794541139363
aF-3.6888794541139363
aF-0.25489224962879004
aF-3.6888794541139363
aF-3.6888794541139363
aF-3.6888794541139363
aF-0.25489224962879004
aF-3.6888794541139363
aF-3.6888794541139363
aF-3.6888794541139363
aF-3.6888794541139363
aF-0.25489224962879004
aF-0.25489224962879004
aF-3.6888794541139363
aF-0.25489224962879004
aF-0.25489224962879004
aF-0.25489224962879004
aF-3.6888794541139363
aF-3.6888794541139363
aF-0.25489224962879004
aF-0.25489224962879004
aF-3.6888794541139363
aF-0.25489224962879004
aF-0.25489224962879004
aF-3.6888794541139363
aF-3.6888794541139363
aF-0.25489224962879004
aF-3.6888794541139363
aF-3.6888794541139363
aF-0.25489224962879004
aF-3.6888794541139363
aF-0.25489224962879004
aF-3.6888794541139363
aF-0.25489224962879004
aF-0.25489224962879004
aF-0.25489224962879004
aF-3.6888794541139363
aF-3.6888794541139363
aF-0.25489224962879004
aF-3.6888794541139363
aF-3.6888794541139363
aF-3.6888794541139363
aF-3.6888794541139363
aF-3.6888794541139363
aF-0.25489224962879004
aF-0.25489224962879004
aF-3.6888794541139363
aF-3.6888794541139363
aF-0.25489224962879004
aF-0.25489224962879004
aF-0.25489224962879004
aF-0.25489224962879004
aF-3.6888794541139363
aF-3.6888794541139363
aF-3.6888794541139363
aF-0.25489224962879004
aF-0.25489224962879004
aF-3.6888794541139363
aF-0.25489224962879004
aF-0.25489224962879004
aF-0.25489224962879004
aF-3.6888794541139363
aF-0.25489224962879004
aF-0.25489224962879004
aF-0.25489224962879004
aF-0.25489224962879004
aF-0.25489224962879004
aF-0.25489224962879004
aF-0.25489224962879004
aF-0.25489224962879004
aF-0.25489224962879004
aF-3.6888794541139363
aF-0.25489224962879004
aF-0.25489224962879004
aF-3.6888794541139363
aF-0.25489224962879004
aF-3.6888794541139363
aF-0.25489224962879004
aF-0.25489224962879004
aF-3.6888794541139363
aF-0.25489224962879004
aF-0.25489224962879004
aF-0.25489224962879004
aF-0.25489224962879004
aF-3.6888794541139363
aF-0.25489224962879004
aF-3.6888794541139363
aF-3.6888794541139363
aF-3.6888794541139363
aF-0.25489224962879004
aF-0.25489224962879004
aF-0.25489224962879004
aF-0.25489224962879004
aF-3.6888794541139363
aF-3.6888794541139363
aF-3.6888794541139363
aF-0.25489224962879004
aF-0.25489224962879004
aF-0.25489224962879004
aF-3.6888794541139363
aF-0.25489224962879004
aF-3.6888794541139363
aF-3.6888794541139363
aF-0.25489224962879004
aF-0.25489224962879004
aF-3.6888794541139363
aF-3.6888794541139363
aF-0.25489224962879004
aF-0.25489224962879004
aF-0.25489224962879004
aF-3.6888794541139363
aF-0.25489224962879004
aF-0.25489224962879004
aF-0.25489224962879004
aF-3.6888794541139363
aF-0.25489224962879004
aF-0.25489224962879004
aF-3.6888794541139363
aF-3.6888794541139363
aF-3.6888794541139363
aF-3.6888794541139363
aF-3.6888794541139363
aF-0.25489224962879004
aF-0.25489224962879004
aF-0.25489224962879004
aF-3.6888794541139363
aF-3.6888794541139363
aF-0.25489224962879004
aF-3.6888794541139363
aF-0.25489224962879004
aF-0.25489224962879004
aF-0.25489224962879004
aF-3.6888794541139363
aF-3.6888794541139363
aF-0.25489224962879004
aF-3.6888794541139363
aF-0.25489224962879004
aF-0.25489224962879004
aF-0.25489224962879004
aF-3.6888794541139363
aF-3.6888794541139363
aF-0.25489224962879004
aF-0.25489224962879004
aF-0.25489224962879004
aF-0.25489224962879004
aF-0.25489224962879004
aF-3.6888794541139363
aF-0.25489224962879004
aF-0.25489224962879004
aF-0.25489224962879004
aF-3.6888794541139363
aF-0.25489224962879004
aF-0.25489224962879004
aF-0.25489224962879004
aF-3.6888794541139363
aF-0.25489224962879004
aF-3.6888794541139363
aF-3.6888794541139363
aF-0.25489224962879004
aF-0.25489224962879004
aF-0.25489224962879004
aF-3.6888794541139363
aF-3.6888794541139363
aF-3.6888794541139363
aF-0.25489224962879004
aF-0.25489224962879004
aF-3.6888794541139363
aF-0.25489224962879004
aF-0.25489224962879004
aF-3.6888794541139363
aF-0.25489224962879004
aF-3.6888794541139363
aF-0.25489224962879004
aF-0.25489224962879004
aF-0.25489224962879004
aF-3.6888794541139363
aF-0.25489224962879004
aF-0.25489224962879004
aF-0.25489224962879004
aF-3.6888794541139363
aF-3.6888794541139363
aF-0.25489224962879004
aF-3.6888794541139363
aF-3.6888794541139363
aF-0.25489224962879004
aF-0.25489224962879004
aF-3.6888794541139363
aF-0.25489224962879004
aF-3.6888794541139363
aF-0.25489224962879004
aF-3.6888794541139363
aF-0.25489224962879004
aF-0.25489224962879004
aF-0.25489224962879004
aF-0.25489224962879004
aF-3.6888794541139363
aF-0.25489224962879004
aF-0.25489224962879004
aF-0.25489224962879004
aF-0.25489224962879004
aF-3.6888794541139363
aF-0.25489224962879004
aF-3.6888794541139363
aF-0.25489224962879004
aF-3.6888794541139363
aF-3.6888794541139363
aF-0.25489224962879004
aF-3.6888794541139363
aF-3.6888794541139363
aF-0.25489224962879004
aF-0.25489224962879004
aF-0.25489224962879004
aF-0.25489224962879004
aF-0.25489224962879004
aF-0.25489224962879004
aF-0.25489224962879004
aF-0.25489224962879004
aF-3.6888794541139363
aF-3.6888794541139363
aF-3.6888794541139363
aF-0.25489224962879004
aF-0.25489224962879004
aF-0.25489224962879004
aF-0.25489224962879004
aF-3.6888794541139363
aF-0.25489224962879004
aF-0.25489224962879004
aF-0.25489224962879004
aF-3.6888794541139363
aF-3.6888794541139363
aF-3.6888794541139363
asg8
g0
(g18
g2
Ntp719
Rp720
(dp721
g22
F0.0
sg23
g0
(g24
g2
Ntp722
Rp723
(dp724
g8
g723
sg28
(iLOTlib.Grammar
Grammar
p725
(dp726
g157
I0
sg155
I0
sg31
F1.0
sg32
g33
(g34
tp727
Rp728
g37
(lp729
(iLOTlib.GrammarRule
GrammarRule
p730
(dp731
g41
g42
sg43
F0.5
sg8
g730
sg44
F1.0
sg45
(lp732
g47
ag37
ag37
asg48
F-0.6931471805599453
sg49
I5
sg50
Nsg51
g37
sg52
Nsba(iLOTlib.GrammarRule
GrammarRule
p733
(dp734
g41
g55
sg43
F0.5
sg8
g733
sg44
F1.0
sg45
(lp735
g47
ag37
asg48
F-0.6931471805599453
sg49
I6
sg50
Nsg51
g37
sg52
Nsba(iLOTlib.GrammarRule
GrammarRule
p736
(dp737
g41
g59
sg43
F1.0
sg8
g736
sg44
F1.0
sg45
(lp738
g61
asg48
F0.0
sg49
I16
sg50
Nsg51
g37
sg52
Nsba(iLOTlib.GrammarRule
GrammarRule
p739
(dp740
g41
g64
sg43
F1.0
sg8
g739
sg44
F1.0
sg45
(lp741
g37
asg48
F0.0
sg49
I17
sg50
Nsg51
g37
sg52
Nsba(iLOTlib.GrammarRule
GrammarRule
p742
(dp743
g41
g68
sg43
F1.0
sg8
g742
sg44
F1.0
sg45
(lp744
g37
asg48
F0.0
sg49
I18
sg50
Nsg51
g37
sg52
Nsba(iLOTlib.GrammarRule
GrammarRule
p745
(dp746
g41
g72
sg43
F0.1
sg8
g745
sg44
F1.0
sg45
Nsg48
F-2.3025850929940455
sg49
I19
sg50
Nsg51
g37
sg52
Nsba(iLOTlib.GrammarRule
GrammarRule
p747
(dp748
g41
g75
sg43
F0.1
sg8
g747
sg44
F1.0
sg45
Nsg48
F-2.3025850929940455
sg49
I20
sg50
Nsg51
g37
sg52
Nsba(iLOTlib.GrammarRule
GrammarRule
p749
(dp750
g41
g78
sg43
F0.1
sg8
g749
sg44
F1.0
sg45
Nsg48
F-2.3025850929940455
sg49
I21
sg50
Nsg51
g37
sg52
Nsba(iLOTlib.GrammarRule
GrammarRule
p751
(dp752
g41
g81
sg43
F0.1
sg8
g751
sg44
F1.0
sg45
Nsg48
F-2.3025850929940455
sg49
I22
sg50
Nsg51
g37
sg52
Nsba(iLOTlib.GrammarRule
GrammarRule
p753
(dp754
g41
g84
sg43
F0.1
sg8
g753
sg44
F1.0
sg45
Nsg48
F-2.3025850929940455
sg49
I23
sg50
Nsg51
g37
sg52
Nsba(iLOTlib.GrammarRule
GrammarRule
p755
(dp756
g41
g87
sg43
F0.1
sg8
g755
sg44
F1.0
sg45
Nsg48
F-2.3025850929940455
sg49
I24
sg50
Nsg51
g37
sg52
Nsba(iLOTlib.GrammarRule
GrammarRule
p757
(dp758
g41
g90
sg43
F0.1
sg8
g757
sg44
F1.0
sg45
Nsg48
F-2.3025850929940455
sg49
I25
sg50
Nsg51
g37
sg52
Nsba(iLOTlib.GrammarRule
GrammarRule
p759
(dp760
g41
g93
sg43
F0.1
sg8
g759
sg44
F1.0
sg45
Nsg48
F-2.3025850929940455
sg49
I26
sg50
Nsg51
g37
sg52
Nsba(iLOTlib.GrammarRule
GrammarRule
p761
(dp762
g41
g96
sg43
F0.1
sg8
g761
sg44
F1.0
sg45
Nsg48
F-2.3025850929940455
sg49
I27
sg50
Nsg51
g37
sg52
Nsba(iLOTlib.GrammarRule
GrammarRule
p763
(dp764
g41
g99
sg43
F0.1
sg8
g763
sg44
F1.0
sg45
Nsg48
F-2.3025850929940455
sg49
I28
sg50
Nsg51
g37
sg52
Nsbasg61
(lp765
(iLOTlib.GrammarRule
GrammarRule
p766
(dp767
g41
g103
sg43
F0.3333333333333333
sg8
g766
sg44
F1.0
sg45
(lp768
g61
ag61
asg48
F-1.0986122886681098
sg49
I11
sg50
Nsg51
g61
sg52
Nsba(iLOTlib.GrammarRule
GrammarRule
p769
(dp770
g41
g107
sg43
F0.3333333333333333
sg8
g769
sg44
F1.0
sg45
(lp771
g61
ag61
asg48
F-1.0986122886681098
sg49
I12
sg50
Nsg51
g61
sg52
Nsba(iLOTlib.GrammarRule
GrammarRule
p772
(dp773
g41
g111
sg43
F0.3333333333333333
sg8
g772
sg44
F1.0
sg45
(lp774
g61
ag61
asg48
F-1.0986122886681098
sg49
I13
sg50
Nsg51
g61
sg52
Nsba(iLOTlib.GrammarRule
GrammarRule
p775
(dp776
g41
g115
sg43
F1.0
sg8
g775
sg44
F1.0
sg45
(lp777
g61
asg48
F0.0
sg49
I14
sg50
Nsg51
g61
sg52
Nsba(iLOTlib.GrammarRule
GrammarRule
p778
(dp779
g41
g17
sg43
F4.0
sg8
g778
sg44
F1.0
sg45
Nsg48
F1.3862943611198906
sg49
I15
sg50
Nsg51
g61
sg52
Nsbasg47
(lp780
(iLOTlib.GrammarRule
GrammarRule
p781
(dp782
g41
g122
sg43
F0.3333333333333333
sg8
g781
sg44
F1.0
sg45
(lp783
g47
ag47
asg48
F-1.0986122886681098
sg49
I0
sg50
Nsg51
g47
sg52
Nsba(iLOTlib.GrammarRule
GrammarRule
p784
(dp785
g41
g126
sg43
F0.3333333333333333
sg8
g784
sg44
F1.0
sg45
(lp786
g47
ag47
asg48
F-1.0986122886681098
sg49
I1
sg50
Nsg51
g47
sg52
Nsba(iLOTlib.GrammarRule
GrammarRule
p787
(dp788
g41
g130
sg43
F0.3333333333333333
sg8
g787
sg44
F1.0
sg45
(lp789
g47
asg48
F-1.0986122886681098
sg49
I2
sg50
Nsg51
g47
sg52
Nsba(iLOTlib.GrammarRule
GrammarRule
p790
(dp791
g41
g134
sg43
F0.5
sg8
g790
sg44
F1.0
sg45
Nsg48
F-0.6931471805599453
sg49
I3
sg50
Nsg51
g47
sg52
Nsba(iLOTlib.GrammarRule
GrammarRule
p792
(dp793
g41
g137
sg43
F0.5
sg8
g792
sg44
F1.0
sg45
Nsg48
F-0.6931471805599453
sg49
I4
sg50
Nsg51
g47
sg52
Nsba(iLOTlib.GrammarRule
GrammarRule
p794
(dp795
g41
g140
sg43
F1.0
sg8
g794
sg44
F1.0
sg45
(lp796
g61
asg48
F0.0
sg49
I7
sg50
Nsg51
g47
sg52
Nsba(iLOTlib.GrammarRule
GrammarRule
p797
(dp798
g41
g144
sg43
F1.0
sg8
g797
sg44
F1.0
sg45
(lp799
g61
asg48
F0.0
sg49
I8
sg50
Nsg51
g47
sg52
Nsba(iLOTlib.GrammarRule
GrammarRule
p800
(dp801
g41
g148
sg43
F1.0
sg8
g800
sg44
F1.0
sg45
(lp802
g61
asg48
F0.0
sg49
I9
sg50
Nsg51
g47
sg52
Nsba(iLOTlib.GrammarRule
GrammarRule
p803
(dp804
g41
g152
sg43
F1.0
sg8
g803
sg44
F1.0
sg45
(lp805
g37
ag37
asg48
F0.0
sg49
I10
sg50
Nsg51
g47
sg52
Nsbassg156
F10.0
sg8
g725
sg154
I29
sbsbsg158
(lp806
g17
asg161
F1.0
sg162
F0.0
sg28
g725
sg163
Nsg8
g720
sg164
Nsg165
g0
(g166
g2
Ntp807
Rp808
(dp809
g41
g55
sg170
I6
sg8
g808
sg158
(lp810
g0
(g166
g2
Ntp811
Rp812
(dp813
g41
g148
sg170
I9
sg8
g812
sg158
(lp814
g0
(g166
g2
Ntp815
Rp816
(dp817
g41
g115
sg170
I14
sg8
g816
sg158
(lp818
g0
(g166
g2
Ntp819
Rp820
(dp821
g41
g17
sg170
I15
sg8
g820
sg158
Nsg44
F1.0
sg48
g183
(g187
S'L\x98\xbf\xec#\xf3\xd9\xbf'
p822
tp823
Rp824
sg193
g61
sg50
Nsg52
Nsbasg44
F1.0
sg48
g183
(g187
S'\x02 *\xfa\x0b\xab\xfc\xbf'
p825
tp826
Rp827
sg193
g61
sg50
Nsg52
Nsbasg44
F1.0
sg48
g183
(g187
S'\x02 *\xfa\x0b\xab\xfc\xbf'
p828
tp829
Rp830
sg193
g47
sg50
Nsg52
Nsbag0
(g166
g2
Ntp831
Rp832
(dp833
g41
g68
sg170
I18
sg8
g832
sg158
(lp834
g0
(g166
g2
Ntp835
Rp836
(dp837
g41
g42
sg170
I5
sg8
g836
sg158
(lp838
g0
(g166
g2
Ntp839
Rp840
(dp841
g41
g152
sg170
I10
sg8
g840
sg158
(lp842
g0
(g166
g2
Ntp843
Rp844
(dp845
g41
g68
sg170
I18
sg8
g844
sg158
(lp846
g0
(g166
g2
Ntp847
Rp848
(dp849
g41
g55
sg170
I6
sg8
g848
sg158
(lp850
g0
(g166
g2
Ntp851
Rp852
(dp853
g41
g137
sg170
I4
sg8
g852
sg158
Nsg44
F1.0
sg48
g183
(g187
S'}\x9e\xd3\xbc\x16\xe1\x03\xc0'
p854
tp855
Rp856
sg193
g47
sg50
Nsg52
Nsbag0
(g166
g2
Ntp857
Rp858
(dp859
g41
g68
sg170
I18
sg8
g858
sg158
(lp860
g0
(g166
g2
Ntp861
Rp862
(dp863
g41
g64
sg170
I17
sg8
g862
sg158
(lp864
g0
(g166
g2
Ntp865
Rp866
(dp867
g41
g99
sg170
I28
sg8
g866
sg158
Nsg44
F1.0
sg48
g183
(g187
S'\xad\x1b\xac\xb7\xd2K\x0f\xc0'
p868
tp869
Rp870
sg193
g37
sg50
Nsg52
Nsbasg44
F1.0
sg48
g183
(g187
S'0\x8d\xed\xf7A\xc0\xf9\xbf'
p871
tp872
Rp873
sg193
g37
sg50
Nsg52
Nsbasg44
F1.0
sg48
g183
(g187
S'0\x8d\xed\xf7A\xc0\xf9\xbf'
p874
tp875
Rp876
sg193
g37
sg50
Nsg52
Nsbasg44
F1.0
sg48
g183
(g187
S'\x14U\xb5\xbb\xb1k\x02\xc0'
p877
tp878
Rp879
sg193
g37
sg50
Nsg52
Nsbasg44
F1.0
sg48
g183
(g187
S'0\x8d\xed\xf7A\xc0\xf9\xbf'
p880
tp881
Rp882
sg193
g37
sg50
Nsg52
Nsbag0
(g166
g2
Ntp883
Rp884
(dp885
g41
g96
sg170
I27
sg8
g884
sg158
Nsg44
F1.0
sg48
g183
(g187
S'\xad\x1b\xac\xb7\xd2K\x0f\xc0'
p886
tp887
Rp888
sg193
g37
sg50
Nsg52
Nsbasg44
F1.0
sg48
g183
(g187
S'\x02 *\xfa\x0b\xab\xfc\xbf'
p889
tp890
Rp891
sg193
g47
sg50
Nsg52
Nsbag0
(g166
g2
Ntp892
Rp893
(dp894
g41
g64
sg170
I17
sg8
g893
sg158
(lp895
g0
(g166
g2
Ntp896
Rp897
(dp898
g41
g90
sg170
I25
sg8
g897
sg158
Nsg44
F1.0
sg48
g183
(g187
S'\xad\x1b\xac\xb7\xd2K\x0f\xc0'
p899
tp900
Rp901
sg193
g37
sg50
Nsg52
Nsbasg44
F1.0
sg48
g183
(g187
S'0\x8d\xed\xf7A\xc0\xf9\xbf'
p902
tp903
Rp904
sg193
g37
sg50
Nsg52
Nsbag0
(g166
g2
Ntp905
Rp906
(dp907
g41
g96
sg170
I27
sg8
g906
sg158
Nsg44
F1.0
sg48
g183
(g187
S'\xad\x1b\xac\xb7\xd2K\x0f\xc0'
p908
tp909
Rp910
sg193
g37
sg50
Nsg52
Nsbasg44
F1.0
sg48
g183
(g187
S'\x14U\xb5\xbb\xb1k\x02\xc0'
p911
tp912
Rp913
sg193
g37
sg50
Nsg52
Nsbasg44
F1.0
sg48
g183
(g187
S'0\x8d\xed\xf7A\xc0\xf9\xbf'
p914
tp915
Rp916
sg193
g37
sg50
Nsg52
Nsbasg44
F1.0
sg48
g183
(g187
S'\x14U\xb5\xbb\xb1k\x02\xc0'
p917
tp918
Rp919
sg193
g37
sg50
Nsg52
Nsbsg289
I00
sg160
I25
sg292
F1.0
sg48
F-inf
sg293
Nsg294
F0.9
sg295
F-inf
sg290
g291
sg296
Nsbsg164
Nsg165
g0
(g166
g2
Ntp920
Rp921
(dp922
g41
g68
sg170
I18
sg8
g0
(g166
g2
Ntp923
Rp924
(dp925
g41
g68
sg170
I18
sg8
g924
sg158
(lp926
g0
(g166
g2
Ntp927
Rp928
(dp929
g41
g64
sg170
I17
sg8
g928
sg158
(lp930
g0
(g166
g2
Ntp931
Rp932
(dp933
g41
g72
sg170
I19
sg8
g932
sg158
Nsg44
F1.0
sg48
g183
(g187
S'\xad\x1b\xac\xb7\xd2K\x0f\xc0'
p934
tp935
Rp936
sg193
g37
sg50
Nsg52
Nsbasg44
F1.0
sg48
g183
(g187
S'0\x8d\xed\xf7A\xc0\xf9\xbf'
p937
tp938
Rp939
sg193
g37
sg50
Nsg52
Nsbasg44
F1.0
sg48
g183
(g187
S'0\x8d\xed\xf7A\xc0\xf9\xbf'
p940
tp941
Rp942
sg193
g37
sg50
Nsg52
Nsbsg158
g926
sg44
F1.0
sg48
g942
sg193
g37
sg50
Nsg52
Nsbsg289
I00
sg290
g291
sg292
F1.0
sg48
g183
(g187
S'x\xb7\x91w\xf74\x81\xc0'
p943
tp944
Rp945
sg293
Nsg294
F0.9
sg295
g183
(g187
S'\xd7\xd4\xccW\n\x86\x1c\xc0'
p946
tp947
Rp948
sg296
Nsbsbag0
(g12
g2
Ntp949
Rp950
(dp951
g16
g183
(g187
S'\xea\xc9\x9957\x1b\x81\xc0'
p952
tp953
Rp954
sg17
g0
(g18
g2
Ntp955
Rp956
(dp957
g22
F0.0
sg23
g26
sg158
(lp958
g17
asg160
I25
sg161
F1.0
sg162
F-543.4899346986147
sg28
(iLOTlib.Grammar
Grammar
p959
(dp960
g157
I0
sg155
I0
sg31
F1.0
sg32
g33
(g34
tp961
Rp962
g47
(lp963
(iLOTlib.GrammarRule
GrammarRule
p964
(dp965
g41
g122
sg43
F0.3333333333333333
sg8
g964
sg44
F1.0
sg45
(lp966
g47
ag47
asg48
F-1.0986122886681098
sg49
I0
sg50
Nsg51
g47
sg52
Nsba(iLOTlib.GrammarRule
GrammarRule
p967
(dp968
g41
g126
sg43
F0.3333333333333333
sg8
g967
sg44
F1.0
sg45
(lp969
g47
ag47
asg48
F-1.0986122886681098
sg49
I1
sg50
Nsg51
g47
sg52
Nsba(iLOTlib.GrammarRule
GrammarRule
p970
(dp971
g41
g130
sg43
F0.3333333333333333
sg8
g970
sg44
F1.0
sg45
(lp972
g47
asg48
F-1.0986122886681098
sg49
I2
sg50
Nsg51
g47
sg52
Nsba(iLOTlib.GrammarRule
GrammarRule
p973
(dp974
g41
g134
sg43
F0.5
sg8
g973
sg44
F1.0
sg45
Nsg48
F-0.6931471805599453
sg49
I3
sg50
Nsg51
g47
sg52
Nsba(iLOTlib.GrammarRule
GrammarRule
p975
(dp976
g41
g137
sg43
F0.5
sg8
g975
sg44
F1.0
sg45
Nsg48
F-0.6931471805599453
sg49
I4
sg50
Nsg51
g47
sg52
Nsba(iLOTlib.GrammarRule
GrammarRule
p977
(dp978
g41
g140
sg43
F1.0
sg8
g977
sg44
F1.0
sg45
(lp979
g61
asg48
F0.0
sg49
I7
sg50
Nsg51
g47
sg52
Nsba(iLOTlib.GrammarRule
GrammarRule
p980
(dp981
g41
g144
sg43
F1.0
sg8
g980
sg44
F1.0
sg45
(lp982
g61
asg48
F0.0
sg49
I8
sg50
Nsg51
g47
sg52
Nsba(iLOTlib.GrammarRule
GrammarRule
p983
(dp984
g41
g148
sg43
F1.0
sg8
g983
sg44
F1.0
sg45
(lp985
g61
asg48
F0.0
sg49
I9
sg50
Nsg51
g47
sg52
Nsba(iLOTlib.GrammarRule
GrammarRule
p986
(dp987
g41
g152
sg43
F1.0
sg8
g986
sg44
F1.0
sg45
(lp988
g37
ag37
asg48
F0.0
sg49
I10
sg50
Nsg51
g47
sg52
Nsbasg61
(lp989
(iLOTlib.GrammarRule
GrammarRule
p990
(dp991
g41
g103
sg43
F0.3333333333333333
sg8
g990
sg44
F1.0
sg45
(lp992
g61
ag61
asg48
F-1.0986122886681098
sg49
I11
sg50
Nsg51
g61
sg52
Nsba(iLOTlib.GrammarRule
GrammarRule
p993
(dp994
g41
g107
sg43
F0.3333333333333333
sg8
g993
sg44
F1.0
sg45
(lp995
g61
ag61
asg48
F-1.0986122886681098
sg49
I12
sg50
Nsg51
g61
sg52
Nsba(iLOTlib.GrammarRule
GrammarRule
p996
(dp997
g41
g111
sg43
F0.3333333333333333
sg8
g996
sg44
F1.0
sg45
(lp998
g61
ag61
asg48
F-1.0986122886681098
sg49
I13
sg50
Nsg51
g61
sg52
Nsba(iLOTlib.GrammarRule
GrammarRule
p999
(dp1000
g41
g115
sg43
F1.0
sg8
g999
sg44
F1.0
sg45
(lp1001
g61
asg48
F0.0
sg49
I14
sg50
Nsg51
g61
sg52
Nsba(iLOTlib.GrammarRule
GrammarRule
p1002
(dp1003
g41
g17
sg43
F4.0
sg8
g1002
sg44
F1.0
sg45
Nsg48
F1.3862943611198906
sg49
I15
sg50
Nsg51
g61
sg52
Nsbasg37
(lp1004
(iLOTlib.GrammarRule
GrammarRule
p1005
(dp1006
g41
g42
sg43
F0.5
sg8
g1005
sg44
F1.0
sg45
(lp1007
g47
ag37
ag37
asg48
F-0.6931471805599453
sg49
I5
sg50
Nsg51
g37
sg52
Nsba(iLOTlib.GrammarRule
GrammarRule
p1008
(dp1009
g41
g55
sg43
F0.5
sg8
g1008
sg44
F1.0
sg45
(lp1010
g47
ag37
asg48
F-0.6931471805599453
sg49
I6
sg50
Nsg51
g37
sg52
Nsba(iLOTlib.GrammarRule
GrammarRule
p1011
(dp1012
g41
g59
sg43
F1.0
sg8
g1011
sg44
F1.0
sg45
(lp1013
g61
asg48
F0.0
sg49
I16
sg50
Nsg51
g37
sg52
Nsba(iLOTlib.GrammarRule
GrammarRule
p1014
(dp1015
g41
g64
sg43
F1.0
sg8
g1014
sg44
F1.0
sg45
(lp1016
g37
asg48
F0.0
sg49
I17
sg50
Nsg51
g37
sg52
Nsba(iLOTlib.GrammarRule
GrammarRule
p1017
(dp1018
g41
g68
sg43
F1.0
sg8
g1017
sg44
F1.0
sg45
(lp1019
g37
asg48
F0.0
sg49
I18
sg50
Nsg51
g37
sg52
Nsba(iLOTlib.GrammarRule
GrammarRule
p1020
(dp1021
g41
g72
sg43
F0.1
sg8
g1020
sg44
F1.0
sg45
Nsg48
F-2.3025850929940455
sg49
I19
sg50
Nsg51
g37
sg52
Nsba(iLOTlib.GrammarRule
GrammarRule
p1022
(dp1023
g41
g75
sg43
F0.1
sg8
g1022
sg44
F1.0
sg45
Nsg48
F-2.3025850929940455
sg49
I20
sg50
Nsg51
g37
sg52
Nsba(iLOTlib.GrammarRule
GrammarRule
p1024
(dp1025
g41
g78
sg43
F0.1
sg8
g1024
sg44
F1.0
sg45
Nsg48
F-2.3025850929940455
sg49
I21
sg50
Nsg51
g37
sg52
Nsba(iLOTlib.GrammarRule
GrammarRule
p1026
(dp1027
g41
g81
sg43
F0.1
sg8
g1026
sg44
F1.0
sg45
Nsg48
F-2.3025850929940455
sg49
I22
sg50
Nsg51
g37
sg52
Nsba(iLOTlib.GrammarRule
GrammarRule
p1028
(dp1029
g41
g84
sg43
F0.1
sg8
g1028
sg44
F1.0
sg45
Nsg48
F-2.3025850929940455
sg49
I23
sg50
Nsg51
g37
sg52
Nsba(iLOTlib.GrammarRule
GrammarRule
p1030
(dp1031
g41
g87
sg43
F0.1
sg8
g1030
sg44
F1.0
sg45
Nsg48
F-2.3025850929940455
sg49
I24
sg50
Nsg51
g37
sg52
Nsba(iLOTlib.GrammarRule
GrammarRule
p1032
(dp1033
g41
g90
sg43
F0.1
sg8
g1032
sg44
F1.0
sg45
Nsg48
F-2.3025850929940455
sg49
I25
sg50
Nsg51
g37
sg52
Nsba(iLOTlib.GrammarRule
GrammarRule
p1034
(dp1035
g41
g93
sg43
F0.1
sg8
g1034
sg44
F1.0
sg45
Nsg48
F-2.3025850929940455
sg49
I26
sg50
Nsg51
g37
sg52
Nsba(iLOTlib.GrammarRule
GrammarRule
p1036
(dp1037
g41
g96
sg43
F0.1
sg8
g1036
sg44
F1.0
sg45
Nsg48
F-2.3025850929940455
sg49
I27
sg50
Nsg51
g37
sg52
Nsba(iLOTlib.GrammarRule
GrammarRule
p1038
(dp1039
g41
g99
sg43
F0.1
sg8
g1038
sg44
F1.0
sg45
Nsg48
F-2.3025850929940455
sg49
I28
sg50
Nsg51
g37
sg52
Nsbassg156
F10.0
sg8
g959
sg154
I29
sbsg163
(lp1040
F-3.6888794541139363
aF-3.6888794541139363
aF-0.25489224962879004
aF-3.6888794541139363
aF-0.25489224962879004
aF-3.6888794541139363
aF-3.6888794541139363
aF-0.25489224962879004
aF-3.6888794541139363
aF-0.25489224962879004
aF-3.6888794541139363
aF-3.6888794541139363
aF-3.6888794541139363
aF-0.25489224962879004
aF-3.6888794541139363
aF-3.6888794541139363
aF-0.25489224962879004
aF-3.6888794541139363
aF-0.25489224962879004
aF-0.25489224962879004
aF-3.6888794541139363
aF-0.25489224962879004
aF-3.6888794541139363
aF-0.25489224962879004
aF-0.25489224962879004
aF-0.25489224962879004
aF-0.25489224962879004
aF-0.25489224962879004
aF-3.6888794541139363
aF-0.25489224962879004
aF-0.25489224962879004
aF-3.6888794541139363
aF-0.25489224962879004
aF-3.6888794541139363
aF-0.25489224962879004
aF-3.6888794541139363
aF-3.6888794541139363
aF-3.6888794541139363
aF-3.6888794541139363
aF-0.25489224962879004
aF-0.25489224962879004
aF-3.6888794541139363
aF-3.6888794541139363
aF-0.25489224962879004
aF-3.6888794541139363
aF-0.25489224962879004
aF-0.25489224962879004
aF-0.25489224962879004
aF-3.6888794541139363
aF-3.6888794541139363
aF-3.6888794541139363
aF-3.6888794541139363
aF-3.6888794541139363
aF-3.6888794541139363
aF-0.25489224962879004
aF-3.6888794541139363
aF-3.6888794541139363
aF-0.25489224962879004
aF-3.6888794541139363
aF-0.25489224962879004
aF-0.25489224962879004
aF-0.25489224962879004
aF-3.6888794541139363
aF-3.6888794541139363
aF-3.6888794541139363
aF-3.6888794541139363
aF-3.6888794541139363
aF-3.6888794541139363
aF-0.25489224962879004
aF-3.6888794541139363
aF-3.6888794541139363
aF-0.25489224962879004
aF-3.6888794541139363
aF-3.6888794541139363
aF-3.6888794541139363
aF-0.25489224962879004
aF-3.6888794541139363
aF-3.6888794541139363
aF-3.6888794541139363
aF-3.6888794541139363
aF-0.25489224962879004
aF-0.25489224962879004
aF-3.6888794541139363
aF-0.25489224962879004
aF-0.25489224962879004
aF-0.25489224962879004
aF-3.6888794541139363
aF-3.6888794541139363
aF-0.25489224962879004
aF-0.25489224962879004
aF-3.6888794541139363
aF-0.25489224962879004
aF-0.25489224962879004
aF-3.6888794541139363
aF-3.6888794541139363
aF-0.25489224962879004
aF-3.6888794541139363
aF-3.6888794541139363
aF-0.25489224962879004
aF-3.6888794541139363
aF-0.25489224962879004
aF-3.6888794541139363
aF-0.25489224962879004
aF-0.25489224962879004
aF-0.25489224962879004
aF-3.6888794541139363
aF-3.6888794541139363
aF-0.25489224962879004
aF-3.6888794541139363
aF-3.6888794541139363
aF-3.6888794541139363
aF-3.6888794541139363
aF-3.6888794541139363
aF-0.25489224962879004
aF-0.25489224962879004
aF-3.6888794541139363
aF-3.6888794541139363
aF-0.25489224962879004
aF-0.25489224962879004
aF-0.25489224962879004
aF-0.25489224962879004
aF-3.6888794541139363
aF-3.6888794541139363
aF-3.6888794541139363
aF-0.25489224962879004
aF-0.25489224962879004
aF-3.6888794541139363
aF-0.25489224962879004
aF-0.25489224962879004
aF-0.25489224962879004
aF-3.6888794541139363
aF-0.25489224962879004
aF-0.25489224962879004
aF-0.25489224962879004
aF-0.25489224962879004
aF-0.25489224962879004
aF-0.25489224962879004
aF-0.25489224962879004
aF-0.25489224962879004
aF-0.25489224962879004
aF-3.6888794541139363
aF-0.25489224962879004
aF-0.25489224962879004
aF-3.6888794541139363
aF-0.25489224962879004
aF-3.6888794541139363
aF-0.25489224962879004
aF-0.25489224962879004
aF-3.6888794541139363
aF-0.25489224962879004
aF-0.25489224962879004
aF-0.25489224962879004
aF-0.25489224962879004
aF-3.6888794541139363
aF-0.25489224962879004
aF-3.6888794541139363
aF-3.6888794541139363
aF-3.6888794541139363
aF-0.25489224962879004
aF-0.25489224962879004
aF-0.25489224962879004
aF-0.25489224962879004
aF-3.6888794541139363
aF-3.6888794541139363
aF-3.6888794541139363
aF-0.25489224962879004
aF-0.25489224962879004
aF-0.25489224962879004
aF-3.6888794541139363
aF-0.25489224962879004
aF-3.6888794541139363
aF-3.6888794541139363
aF-0.25489224962879004
aF-0.25489224962879004
aF-3.6888794541139363
aF-3.6888794541139363
aF-0.25489224962879004
aF-0.25489224962879004
aF-0.25489224962879004
aF-3.6888794541139363
aF-0.25489224962879004
aF-0.25489224962879004
aF-0.25489224962879004
aF-3.6888794541139363
aF-0.25489224962879004
aF-0.25489224962879004
aF-3.6888794541139363
aF-3.6888794541139363
aF-3.6888794541139363
aF-3.6888794541139363
aF-3.6888794541139363
aF-0.25489224962879004
aF-0.25489224962879004
aF-0.25489224962879004
aF-3.6888794541139363
aF-3.6888794541139363
aF-0.25489224962879004
aF-3.6888794541139363
aF-0.25489224962879004
aF-0.25489224962879004
aF-0.25489224962879004
aF-3.6888794541139363
aF-3.6888794541139363
aF-0.25489224962879004
aF-3.6888794541139363
aF-0.25489224962879004
aF-0.25489224962879004
aF-0.25489224962879004
aF-3.6888794541139363
aF-3.6888794541139363
aF-0.25489224962879004
aF-0.25489224962879004
aF-0.25489224962879004
aF-0.25489224962879004
aF-0.25489224962879004
aF-3.6888794541139363
aF-0.25489224962879004
aF-0.25489224962879004
aF-0.25489224962879004
aF-3.6888794541139363
aF-0.25489224962879004
aF-0.25489224962879004
aF-0.25489224962879004
aF-3.6888794541139363
aF-0.25489224962879004
aF-3.6888794541139363
aF-3.6888794541139363
aF-0.25489224962879004
aF-0.25489224962879004
aF-0.25489224962879004
aF-3.6888794541139363
aF-3.6888794541139363
aF-3.6888794541139363
aF-0.25489224962879004
aF-0.25489224962879004
aF-3.6888794541139363
aF-0.25489224962879004
aF-0.25489224962879004
aF-3.6888794541139363
aF-0.25489224962879004
aF-3.6888794541139363
aF-0.25489224962879004
aF-0.25489224962879004
aF-0.25489224962879004
aF-3.6888794541139363
aF-0.25489224962879004
aF-0.25489224962879004
aF-0.25489224962879004
aF-3.6888794541139363
aF-3.6888794541139363
aF-0.25489224962879004
aF-3.6888794541139363
aF-3.6888794541139363
aF-0.25489224962879004
aF-0.25489224962879004
aF-3.6888794541139363
aF-0.25489224962879004
aF-3.6888794541139363
aF-0.25489224962879004
aF-3.6888794541139363
aF-0.25489224962879004
aF-0.25489224962879004
aF-0.25489224962879004
aF-0.25489224962879004
aF-3.6888794541139363
aF-0.25489224962879004
aF-0.25489224962879004
aF-0.25489224962879004
aF-0.25489224962879004
aF-3.6888794541139363
aF-0.25489224962879004
aF-3.6888794541139363
aF-0.25489224962879004
aF-3.6888794541139363
aF-3.6888794541139363
aF-0.25489224962879004
aF-3.6888794541139363
aF-3.6888794541139363
aF-0.25489224962879004
aF-0.25489224962879004
aF-0.25489224962879004
aF-0.25489224962879004
aF-0.25489224962879004
aF-0.25489224962879004
aF-0.25489224962879004
aF-0.25489224962879004
aF-3.6888794541139363
aF-3.6888794541139363
aF-3.6888794541139363
aF-0.25489224962879004
aF-0.25489224962879004
aF-0.25489224962879004
aF-0.25489224962879004
aF-3.6888794541139363
aF-0.25489224962879004
aF-0.25489224962879004
aF-0.25489224962879004
aF-3.6888794541139363
aF-3.6888794541139363
aF-3.6888794541139363
asg8
g0
(g18
g2
Ntp1041
Rp1042
(dp1043
g22
F0.0
sg23
g0
(g24
g2
Ntp1044
Rp1045
(dp1046
g8
g1045
sg28
(iLOTlib.Grammar
Grammar
p1047
(dp1048
g157
I0
sg155
I0
sg31
F1.0
sg32
g33
(g34
tp1049
Rp1050
g47
(lp1051
(iLOTlib.GrammarRule
GrammarRule
p1052
(dp1053
g41
g122
sg43
F0.3333333333333333
sg8
g1052
sg44
F1.0
sg45
(lp1054
g47
ag47
asg48
F-1.0986122886681098
sg49
I0
sg50
Nsg51
g47
sg52
Nsba(iLOTlib.GrammarRule
GrammarRule
p1055
(dp1056
g41
g126
sg43
F0.3333333333333333
sg8
g1055
sg44
F1.0
sg45
(lp1057
g47
ag47
asg48
F-1.0986122886681098
sg49
I1
sg50
Nsg51
g47
sg52
Nsba(iLOTlib.GrammarRule
GrammarRule
p1058
(dp1059
g41
g130
sg43
F0.3333333333333333
sg8
g1058
sg44
F1.0
sg45
(lp1060
g47
asg48
F-1.0986122886681098
sg49
I2
sg50
Nsg51
g47
sg52
Nsba(iLOTlib.GrammarRule
GrammarRule
p1061
(dp1062
g41
g134
sg43
F0.5
sg8
g1061
sg44
F1.0
sg45
Nsg48
F-0.6931471805599453
sg49
I3
sg50
Nsg51
g47
sg52
Nsba(iLOTlib.GrammarRule
GrammarRule
p1063
(dp1064
g41
g137
sg43
F0.5
sg8
g1063
sg44
F1.0
sg45
Nsg48
F-0.6931471805599453
sg49
I4
sg50
Nsg51
g47
sg52
Nsba(iLOTlib.GrammarRule
GrammarRule
p1065
(dp1066
g41
g140
sg43
F1.0
sg8
g1065
sg44
F1.0
sg45
(lp1067
g61
asg48
F0.0
sg49
I7
sg50
Nsg51
g47
sg52
Nsba(iLOTlib.GrammarRule
GrammarRule
p1068
(dp1069
g41
g144
sg43
F1.0
sg8
g1068
sg44
F1.0
sg45
(lp1070
g61
asg48
F0.0
sg49
I8
sg50
Nsg51
g47
sg52
Nsba(iLOTlib.GrammarRule
GrammarRule
p1071
(dp1072
g41
g148
sg43
F1.0
sg8
g1071
sg44
F1.0
sg45
(lp1073
g61
asg48
F0.0
sg49
I9
sg50
Nsg51
g47
sg52
Nsba(iLOTlib.GrammarRule
GrammarRule
p1074
(dp1075
g41
g152
sg43
F1.0
sg8
g1074
sg44
F1.0
sg45
(lp1076
g37
ag37
asg48
F0.0
sg49
I10
sg50
Nsg51
g47
sg52
Nsbasg61
(lp1077
(iLOTlib.GrammarRule
GrammarRule
p1078
(dp1079
g41
g103
sg43
F0.3333333333333333
sg8
g1078
sg44
F1.0
sg45
(lp1080
g61
ag61
asg48
F-1.0986122886681098
sg49
I11
sg50
Nsg51
g61
sg52
Nsba(iLOTlib.GrammarRule
GrammarRule
p1081
(dp1082
g41
g107
sg43
F0.3333333333333333
sg8
g1081
sg44
F1.0
sg45
(lp1083
g61
ag61
asg48
F-1.0986122886681098
sg49
I12
sg50
Nsg51
g61
sg52
Nsba(iLOTlib.GrammarRule
GrammarRule
p1084
(dp1085
g41
g111
sg43
F0.3333333333333333
sg8
g1084
sg44
F1.0
sg45
(lp1086
g61
ag61
asg48
F-1.0986122886681098
sg49
I13
sg50
Nsg51
g61
sg52
Nsba(iLOTlib.GrammarRule
GrammarRule
p1087
(dp1088
g41
g115
sg43
F1.0
sg8
g1087
sg44
F1.0
sg45
(lp1089
g61
asg48
F0.0
sg49
I14
sg50
Nsg51
g61
sg52
Nsba(iLOTlib.GrammarRule
GrammarRule
p1090
(dp1091
g41
g17
sg43
F4.0
sg8
g1090
sg44
F1.0
sg45
Nsg48
F1.3862943611198906
sg49
I15
sg50
Nsg51
g61
sg52
Nsbasg37
(lp1092
(iLOTlib.GrammarRule
GrammarRule
p1093
(dp1094
g41
g42
sg43
F0.5
sg8
g1093
sg44
F1.0
sg45
(lp1095
g47
ag37
ag37
asg48
F-0.6931471805599453
sg49
I5
sg50
Nsg51
g37
sg52
Nsba(iLOTlib.GrammarRule
GrammarRule
p1096
(dp1097
g41
g55
sg43
F0.5
sg8
g1096
sg44
F1.0
sg45
(lp1098
g47
ag37
asg48
F-0.6931471805599453
sg49
I6
sg50
Nsg51
g37
sg52
Nsba(iLOTlib.GrammarRule
GrammarRule
p1099
(dp1100
g41
g59
sg43
F1.0
sg8
g1099
sg44
F1.0
sg45
(lp1101
g61
asg48
F0.0
sg49
I16
sg50
Nsg51
g37
sg52
Nsba(iLOTlib.GrammarRule
GrammarRule
p1102
(dp1103
g41
g64
sg43
F1.0
sg8
g1102
sg44
F1.0
sg45
(lp1104
g37
asg48
F0.0
sg49
I17
sg50
Nsg51
g37
sg52
Nsba(iLOTlib.GrammarRule
GrammarRule
p1105
(dp1106
g41
g68
sg43
F1.0
sg8
g1105
sg44
F1.0
sg45
(lp1107
g37
asg48
F0.0
sg49
I18
sg50
Nsg51
g37
sg52
Nsba(iLOTlib.GrammarRule
GrammarRule
p1108
(dp1109
g41
g72
sg43
F0.1
sg8
g1108
sg44
F1.0
sg45
Nsg48
F-2.3025850929940455
sg49
I19
sg50
Nsg51
g37
sg52
Nsba(iLOTlib.GrammarRule
GrammarRule
p1110
(dp1111
g41
g75
sg43
F0.1
sg8
g1110
sg44
F1.0
sg45
Nsg48
F-2.3025850929940455
sg49
I20
sg50
Nsg51
g37
sg52
Nsba(iLOTlib.GrammarRule
GrammarRule
p1112
(dp1113
g41
g78
sg43
F0.1
sg8
g1112
sg44
F1.0
sg45
Nsg48
F-2.3025850929940455
sg49
I21
sg50
Nsg51
g37
sg52
Nsba(iLOTlib.GrammarRule
GrammarRule
p1114
(dp1115
g41
g81
sg43
F0.1
sg8
g1114
sg44
F1.0
sg45
Nsg48
F-2.3025850929940455
sg49
I22
sg50
Nsg51
g37
sg52
Nsba(iLOTlib.GrammarRule
GrammarRule
p1116
(dp1117
g41
g84
sg43
F0.1
sg8
g1116
sg44
F1.0
sg45
Nsg48
F-2.3025850929940455
sg49
I23
sg50
Nsg51
g37
sg52
Nsba(iLOTlib.GrammarRule
GrammarRule
p1118
(dp1119
g41
g87
sg43
F0.1
sg8
g1118
sg44
F1.0
sg45
Nsg48
F-2.3025850929940455
sg49
I24
sg50
Nsg51
g37
sg52
Nsba(iLOTlib.GrammarRule
GrammarRule
p1120
(dp1121
g41
g90
sg43
F0.1
sg8
g1120
sg44
F1.0
sg45
Nsg48
F-2.3025850929940455
sg49
I25
sg50
Nsg51
g37
sg52
Nsba(iLOTlib.GrammarRule
GrammarRule
p1122
(dp1123
g41
g93
sg43
F0.1
sg8
g1122
sg44
F1.0
sg45
Nsg48
F-2.3025850929940455
sg49
I26
sg50
Nsg51
g37
sg52
Nsba(iLOTlib.GrammarRule
GrammarRule
p1124
(dp1125
g41
g96
sg43
F0.1
sg8
g1124
sg44
F1.0
sg45
Nsg48
F-2.3025850929940455
sg49
I27
sg50
Nsg51
g37
sg52
Nsba(iLOTlib.GrammarRule
GrammarRule
p1126
(dp1127
g41
g99
sg43
F0.1
sg8
g1126
sg44
F1.0
sg45
Nsg48
F-2.3025850929940455
sg49
I28
sg50
Nsg51
g37
sg52
Nsbassg156
F10.0
sg8
g1047
sg154
I29
sbsbsg158
(lp1128
g17
asg160
I25
sg161
F1.0
sg162
F0.0
sg28
g1047
sg164
Nsg8
g1042
sg163
Nsg165
g0
(g166
g2
Ntp1129
Rp1130
(dp1131
g41
g55
sg170
I6
sg8
g1130
sg158
(lp1132
g0
(g166
g2
Ntp1133
Rp1134
(dp1135
g41
g148
sg170
I9
sg8
g1134
sg158
(lp1136
g0
(g166
g2
Ntp1137
Rp1138
(dp1139
g41
g115
sg170
I14
sg8
g1138
sg158
(lp1140
g0
(g166
g2
Ntp1141
Rp1142
(dp1143
g41
g17
sg170
I15
sg8
g1142
sg158
Nsg44
F1.0
sg48
g183
(g187
S'L\x98\xbf\xec#\xf3\xd9\xbf'
p1144
tp1145
Rp1146
sg193
g61
sg50
Nsg52
Nsbasg44
F1.0
sg48
g183
(g187
S'\x02 *\xfa\x0b\xab\xfc\xbf'
p1147
tp1148
Rp1149
sg193
g61
sg50
Nsg52
Nsbasg44
F1.0
sg48
g183
(g187
S'\x02 *\xfa\x0b\xab\xfc\xbf'
p1150
tp1151
Rp1152
sg193
g47
sg50
Nsg52
Nsbag0
(g166
g2
Ntp1153
Rp1154
(dp1155
g41
g68
sg170
I18
sg8
g1154
sg158
(lp1156
g0
(g166
g2
Ntp1157
Rp1158
(dp1159
g41
g42
sg170
I5
sg8
g1158
sg158
(lp1160
g0
(g166
g2
Ntp1161
Rp1162
(dp1163
g41
g152
sg170
I10
sg8
g1162
sg158
(lp1164
g0
(g166
g2
Ntp1165
Rp1166
(dp1167
g41
g68
sg170
I18
sg8
g1166
sg158
(lp1168
g0
(g166
g2
Ntp1169
Rp1170
(dp1171
g41
g55
sg170
I6
sg8
g1170
sg158
(lp1172
g0
(g166
g2
Ntp1173
Rp1174
(dp1175
g41
g137
sg170
I4
sg8
g1174
sg158
Nsg44
F1.0
sg48
g183
(g187
S'}\x9e\xd3\xbc\x16\xe1\x03\xc0'
p1176
tp1177
Rp1178
sg193
g47
sg50
Nsg52
Nsbag0
(g166
g2
Ntp1179
Rp1180
(dp1181
g41
g68
sg170
I18
sg8
g1180
sg158
(lp1182
g0
(g166
g2
Ntp1183
Rp1184
(dp1185
g41
g64
sg170
I17
sg8
g1184
sg158
(lp1186
g0
(g166
g2
Ntp1187
Rp1188
(dp1189
g41
g99
sg170
I28
sg8
g1188
sg158
Nsg44
F1.0
sg48
g183
(g187
S'\xad\x1b\xac\xb7\xd2K\x0f\xc0'
p1190
tp1191
Rp1192
sg193
g37
sg50
Nsg52
Nsbasg44
F1.0
sg48
g183
(g187
S'0\x8d\xed\xf7A\xc0\xf9\xbf'
p1193
tp1194
Rp1195
sg193
g37
sg50
Nsg52
Nsbasg44
F1.0
sg48
g183
(g187
S'0\x8d\xed\xf7A\xc0\xf9\xbf'
p1196
tp1197
Rp1198
sg193
g37
sg50
Nsg52
Nsbasg44
F1.0
sg48
g183
(g187
S'\x14U\xb5\xbb\xb1k\x02\xc0'
p1199
tp1200
Rp1201
sg193
g37
sg50
Nsg52
Nsbasg44
F1.0
sg48
g183
(g187
S'0\x8d\xed\xf7A\xc0\xf9\xbf'
p1202
tp1203
Rp1204
sg193
g37
sg50
Nsg52
Nsbag0
(g166
g2
Ntp1205
Rp1206
(dp1207
g41
g96
sg170
I27
sg8
g1206
sg158
Nsg44
F1.0
sg48
g183
(g187
S'\xad\x1b\xac\xb7\xd2K\x0f\xc0'
p1208
tp1209
Rp1210
sg193
g37
sg50
Nsg52
Nsbasg44
F1.0
sg48
g183
(g187
S'\x02 *\xfa\x0b\xab\xfc\xbf'
p1211
tp1212
Rp1213
sg193
g47
sg50
Nsg52
Nsbag0
(g166
g2
Ntp1214
Rp1215
(dp1216
g41
g64
sg170
I17
sg8
g1215
sg158
(lp1217
g0
(g166
g2
Ntp1218
Rp1219
(dp1220
g41
g90
sg170
I25
sg8
g1219
sg158
Nsg44
F1.0
sg48
g183
(g187
S'\xad\x1b\xac\xb7\xd2K\x0f\xc0'
p1221
tp1222
Rp1223
sg193
g37
sg50
Nsg52
Nsbasg44
F1.0
sg48
g183
(g187
S'0\x8d\xed\xf7A\xc0\xf9\xbf'
p1224
tp1225
Rp1226
sg193
g37
sg50
Nsg52
Nsbag0
(g166
g2
Ntp1227
Rp1228
(dp1229
g41
g96
sg170
I27
sg8
g1228
sg158
Nsg44
F1.0
sg48
g183
(g187
S'\xad\x1b\xac\xb7\xd2K\x0f\xc0'
p1230
tp1231
Rp1232
sg193
g37
sg50
Nsg52
Nsbasg44
F1.0
sg48
g183
(g187
S'\x14U\xb5\xbb\xb1k\x02\xc0'
p1233
tp1234
Rp1235
sg193
g37
sg50
Nsg52
Nsbasg44
F1.0
sg48
g183
(g187
S'0\x8d\xed\xf7A\xc0\xf9\xbf'
p1236
tp1237
Rp1238
sg193
g37
sg50
Nsg52
Nsbasg44
F1.0
sg48
g183
(g187
S'\x14U\xb5\xbb\xb1k\x02\xc0'
p1239
tp1240
Rp1241
sg193
g37
sg50
Nsg52
Nsbsg289
I00
sg295
F-inf
sg292
F1.0
sg48
F-inf
sg293
Nsg294
F0.9
sg290
g291
sg296
Nsbsg164
Nsg165
g0
(g166
g2
Ntp1242
Rp1243
(dp1244
g41
g72
sg170
I19
sg8
g0
(g166
g2
Ntp1245
Rp1246
(dp1247
g41
g72
sg170
I19
sg8
g1246
sg158
Nsg44
F1.0
sg48
g183
(g187
S'\xad\x1b\xac\xb7\xd2K\x0f\xc0'
p1248
tp1249
Rp1250
sg193
g37
sg50
Nsg52
Nsbsg158
Nsg44
F1.0
sg48
g1250
sg193
g37
sg50
Nsg52
Nsbsg289
I00
sg290
g291
sg292
F1.0
sg48
g183
(g187
S'\xea\xc9\x9957\x1b\x81\xc0'
p1251
tp1252
Rp1253
sg293
Nsg294
F0.9
sg295
g183
(g187
S'\x80\x1c\xac\xb7\xd2K\x0f\xc0'
p1254
tp1255
Rp1256
sg296
NsbsbasS'unique_set'
p1257
c__builtin__
set
p1258
((lp1259
g956
ag634
ag20
ag304
atp1260
Rp1261
sS'unique'
p1262
I01
sb.