ccopy_reg
_reconstructor
p0
(cLOTlib.TopN
TopN
p1
c__builtin__
object
p2
Ntp3
Rp4
(dp5
S'Q'
p6
(lp7
g0
(cLOTlib.TopN
QueueItem
p8
g2
Ntp9
Rp10
(dp11
S'priority'
p12
F-1723.117377249483
sS'item'
p13
g0
(c__main__
MyHypothesis
p14
g2
Ntp15
Rp16
(dp17
S'posterior_score'
p18
F-1723.117377249483
sS'rules_vector'
p19
NsS'likelihood_temperature'
p20
F1.0
sS'value'
p21
g0
(cLOTlib.FunctionNode
FunctionNode
p22
g2
Ntp23
Rp24
(dp25
S'name'
p26
S'flatten2str'
p27
sS'parent'
p28
NsS'self'
p29
g24
sS'args'
p30
(lp31
g0
(g22
g2
Ntp32
Rp33
(dp34
g26
S'sample_'
p35
sg28
g24
sg29
g33
sg30
(lp36
g0
(g22
g2
Ntp37
Rp38
(dp39
g26
S'"%s"'
p40
sg28
g33
sg29
g38
sg30
(lp41
g0
(g22
g2
Ntp42
Rp43
(dp44
g26
S'%s%s'
p45
sg28
g38
sg29
g43
sg30
(lp46
g0
(g22
g2
Ntp47
Rp48
(dp49
g26
S'k'
p50
sg28
g43
sg29
g48
sg30
NsS'returntype'
p51
S'TERMINAL'
p52
sS'added_rule'
p53
Nsbag0
(g22
g2
Ntp54
Rp55
(dp56
g26
g45
sg28
g43
sg29
g55
sg30
(lp57
g0
(g22
g2
Ntp58
Rp59
(dp60
g26
S'f'
p61
sg28
g55
sg29
g0
(g22
g2
Ntp62
Rp63
g60
bsg30
Nsg51
g52
sg53
Nsbag0
(g22
g2
Ntp64
Rp65
(dp66
g26
g45
sg28
g55
sg29
g65
sg30
(lp67
g0
(g22
g2
Ntp68
Rp69
(dp70
g26
S'n'
p71
sg28
g65
sg29
g69
sg30
Nsg51
g52
sg53
Nsbag0
(g22
g2
Ntp72
Rp73
(dp74
g26
g45
sg28
g65
sg29
g73
sg30
(lp75
g0
(g22
g2
Ntp76
Rp77
(dp78
g26
S'N'
p79
sg28
g73
sg29
g77
sg30
Nsg51
g52
sg53
Nsbag0
(g22
g2
Ntp80
Rp81
(dp82
g26
S'%s'
p83
sg28
g73
sg29
g81
sg30
(lp84
g0
(g22
g2
Ntp85
Rp86
(dp87
g26
g79
sg28
g81
sg29
g86
sg30
Nsg51
g52
sg53
Nsbasg51
S'STRING'
p88
sg53
Nsbasg51
g88
sg53
Nsbasg51
g88
sg53
Nsbasg51
g88
sg53
Nsbasg51
g88
sg53
Nsbasg51
S'SET'
p89
sg53
Nsbasg51
S'EXPR'
p90
sg53
Nsbasg51
S'START'
p91
sg53
NsbsS'likelihood'
p92
F-1708.2600533518942
sS'grammar'
p93
(iLOTlib.Grammar
Grammar
p94
(dp95
S'rules'
p96
ccollections
defaultdict
p97
(c__builtin__
list
p98
tp99
Rp100
g52
(lp101
g0
(cLOTlib.GrammarRule
GrammarRule
p102
g2
Ntp103
Rp104
(dp105
S'to'
p106
NsS'bv_prefix'
p107
Nsg26
S'g'
p108
sS'p'
p109
F15.0
sg29
g104
sS'nt'
p110
g52
sbag0
(g102
g2
Ntp111
Rp112
(dp113
g106
Nsg107
Nsg26
S'e'
p114
sg109
F15.0
sg29
g112
sg110
g52
sbag0
(g102
g2
Ntp115
Rp116
(dp117
g106
Nsg107
Nsg26
g50
sg109
F15.0
sg29
g116
sg110
g52
sbag0
(g102
g2
Ntp118
Rp119
(dp120
g106
Nsg107
Nsg26
S's'
p121
sg109
F15.0
sg29
g119
sg110
g52
sbag0
(g102
g2
Ntp122
Rp123
(dp124
g106
Nsg107
Nsg26
g61
sg109
F15.0
sg29
g123
sg110
g52
sbag0
(g102
g2
Ntp125
Rp126
(dp127
g106
Nsg107
Nsg26
g71
sg109
F15.0
sg29
g126
sg110
g52
sbag0
(g102
g2
Ntp128
Rp129
(dp130
g106
Nsg107
Nsg26
S'm'
p131
sg109
F15.0
sg29
g129
sg110
g52
sbag0
(g102
g2
Ntp132
Rp133
(dp134
g106
Nsg107
Nsg26
S'h'
p135
sg109
F15.0
sg29
g133
sg110
g52
sbag0
(g102
g2
Ntp136
Rp137
(dp138
g106
Nsg107
Nsg26
g79
sg109
F15.0
sg29
g137
sg110
g52
sbasg91
(lp139
g0
(g102
g2
Ntp140
Rp141
(dp142
g106
(lp143
g90
asg107
Nsg26
g27
sg109
F1.0
sg29
g141
sg110
g91
sbasg89
(lp144
g0
(g102
g2
Ntp145
Rp146
(dp147
g106
(lp148
g88
asg107
Nsg26
g40
sg109
F1.0
sg29
g146
sg110
g89
sbasg88
(lp149
g0
(g102
g2
Ntp150
Rp151
(dp152
g106
(lp153
g52
ag88
asg107
Nsg26
g45
sg109
F1.0
sg29
g151
sg110
g88
sbag0
(g102
g2
Ntp154
Rp155
(dp156
g106
(lp157
g52
asg107
Nsg26
g83
sg109
F1.0
sg29
g155
sg110
g88
sbasg90
(lp158
g0
(g102
g2
Ntp159
Rp160
(dp161
g106
(lp162
g89
asg107
Nsg26
g35
sg109
F1.0
sg29
g160
sg110
g90
sbag0
(g102
g2
Ntp163
Rp164
(dp165
g106
(lp166
g90
ag90
asg107
Nsg26
S'cons_'
p167
sg109
F0.5
sg29
g164
sg110
g90
sbassg29
g94
sS'rule_count'
p168
I15
sS'start'
p169
g91
sS'BV_P'
p170
F10.0
sS'bv_count'
p171
I0
sbsS'stored_likelihood'
p172
Nsg29
g0
(g14
g2
Ntp173
Rp174
(dp175
g18
F-1711.5558902178984
sg19
Nsg20
F1.0
sg21
g0
(g22
g2
Ntp176
Rp177
(dp178
g26
g27
sg28
Nsg29
g177
sg30
(lp179
g0
(g22
g2
Ntp180
Rp181
(dp182
g26
g35
sg28
g177
sg29
g181
sg30
(lp183
g0
(g22
g2
Ntp184
Rp185
(dp186
g26
g40
sg28
g181
sg29
g185
sg30
(lp187
g0
(g22
g2
Ntp188
Rp189
(dp190
g26
g83
sg28
g185
sg29
g189
sg30
(lp191
g0
(g22
g2
Ntp192
Rp193
(dp194
g26
g108
sg28
g189
sg29
g193
sg30
Nsg51
g52
sg53
Nsbasg51
g88
sg53
Nsbasg51
g89
sg53
Nsbasg51
g90
sg53
Nsbasg51
g91
sg53
Nsbsg92
F-1708.2600533518942
sg93
g94
sg172
Nsg29
g174
sg61
NsS'll_counts'
p195
ccollections
Counter
p196
((dp197
g108
I512
stp198
Rp199
sS'prior'
p200
F-3.295836866004329
sS'prior_temperature'
p201
F1.0
sS'kwargs'
p202
(dp203
S'display'
p204
S'lambda : %s'
p205
ssS'fvalue'
p206
Nsg204
g205
sS'maxnodes'
p207
I50
sbsg61
Nsg195
g196
((dp208
g50
I98
sg79
I198
sg61
I111
sg71
I105
stp209
Rp210
sg200
F-14.857323897588989
sg201
F1.0
sg202
g203
sg206
Nsg204
g205
sg207
I50
sbsbag0
(g8
g2
Ntp211
Rp212
(dp213
g12
F-1723.117377249483
sg13
g0
(g14
g2
Ntp214
Rp215
(dp216
g18
F-1723.117377249483
sg19
Nsg20
F1.0
sg21
g0
(g22
g2
Ntp217
Rp218
(dp219
g26
g27
sg28
Nsg29
g218
sg30
(lp220
g0
(g22
g2
Ntp221
Rp222
(dp223
g26
g35
sg28
g218
sg29
g222
sg30
(lp224
g0
(g22
g2
Ntp225
Rp226
(dp227
g26
g40
sg28
g222
sg29
g226
sg30
(lp228
g0
(g22
g2
Ntp229
Rp230
(dp231
g26
g45
sg28
g226
sg29
g230
sg30
(lp232
g0
(g22
g2
Ntp233
Rp234
(dp235
g26
g61
sg28
g230
sg29
g234
sg30
Nsg51
g52
sg53
Nsbag0
(g22
g2
Ntp236
Rp237
(dp238
g26
g45
sg28
g230
sg29
g0
(g22
g2
Ntp239
Rp240
g238
bsg30
(lp241
g0
(g22
g2
Ntp242
Rp243
(dp244
g26
g135
sg28
g237
sg29
g243
sg30
Nsg51
g52
sg53
Nsbag0
(g22
g2
Ntp245
Rp246
(dp247
g26
g45
sg28
g237
sg29
g246
sg30
(lp248
g0
(g22
g2
Ntp249
Rp250
(dp251
g26
g131
sg28
g246
sg29
g250
sg30
Nsg51
g52
sg53
Nsbag0
(g22
g2
Ntp252
Rp253
(dp254
g26
g45
sg28
g246
sg29
g253
sg30
(lp255
g0
(g22
g2
Ntp256
Rp257
(dp258
g26
g114
sg28
g253
sg29
g257
sg30
Nsg51
g52
sg53
Nsbag0
(g22
g2
Ntp259
Rp260
(dp261
g26
g83
sg28
g253
sg29
g260
sg30
(lp262
g0
(g22
g2
Ntp263
Rp264
(dp265
g26
g71
sg28
g260
sg29
g264
sg30
Nsg51
g52
sg53
Nsbasg51
g88
sg53
Nsbasg51
g88
sg53
Nsbasg51
g88
sg53
Nsbasg51
g88
sg53
Nsbasg51
g88
sg53
Nsbasg51
g89
sg53
Nsbasg51
g90
sg53
Nsbasg51
g91
sg53
Nsbsg92
F-1708.2600533518942
sg93
g94
sg172
Nsg29
g174
sg61
Nsg195
g196
((dp266
g135
I106
sg71
I92
sg114
I128
sg131
I87
sg61
I99
stp267
Rp268
sg200
F-14.857323897588989
sg201
F1.0
sg202
g203
sg206
Nsg204
g205
sg207
I50
sbsbag0
(g8
g2
Ntp269
Rp270
(dp271
g12
F-1723.117377249483
sg13
g0
(g14
g2
Ntp272
Rp273
(dp274
g18
F-1723.117377249483
sg19
Nsg20
F1.0
sg21
g0
(g22
g2
Ntp275
Rp276
(dp277
g26
g27
sg28
Nsg29
g276
sg30
(lp278
g0
(g22
g2
Ntp279
Rp280
(dp281
g26
g35
sg28
g276
sg29
g280
sg30
(lp282
g0
(g22
g2
Ntp283
Rp284
(dp285
g26
g40
sg28
g280
sg29
g284
sg30
(lp286
g0
(g22
g2
Ntp287
Rp288
(dp289
g26
g45
sg28
g284
sg29
g0
(g22
g2
Ntp290
Rp291
g289
bsg30
(lp292
g0
(g22
g2
Ntp293
Rp294
(dp295
g26
g50
sg28
g288
sg29
g294
sg30
Nsg51
g52
sg53
Nsbag0
(g22
g2
Ntp296
Rp297
(dp298
g26
g45
sg28
g288
sg29
g297
sg30
(lp299
g0
(g22
g2
Ntp300
Rp301
(dp302
g26
g79
sg28
g297
sg29
g301
sg30
Nsg51
g52
sg53
Nsbag0
(g22
g2
Ntp303
Rp304
(dp305
g26
g45
sg28
g297
sg29
g304
sg30
(lp306
g0
(g22
g2
Ntp307
Rp308
(dp309
g26
g131
sg28
g304
sg29
g308
sg30
Nsg51
g52
sg53
Nsbag0
(g22
g2
Ntp310
Rp311
(dp312
g26
g45
sg28
g304
sg29
g311
sg30
(lp313
g0
(g22
g2
Ntp314
Rp315
(dp316
g26
g79
sg28
g311
sg29
g315
sg30
Nsg51
g52
sg53
Nsbag0
(g22
g2
Ntp317
Rp318
(dp319
g26
g83
sg28
g311
sg29
g318
sg30
(lp320
g0
(g22
g2
Ntp321
Rp322
(dp323
g26
g79
sg28
g318
sg29
g322
sg30
Nsg51
g52
sg53
Nsbasg51
g88
sg53
Nsbasg51
g88
sg53
Nsbasg51
g88
sg53
Nsbasg51
g88
sg53
Nsbasg51
g88
sg53
Nsbasg51
g89
sg53
Nsbasg51
g90
sg53
Nsbasg51
g91
sg53
Nsbsg92
F-1708.2600533518942
sg93
g94
sg172
Nsg29
g174
sg61
Nsg195
g196
((dp324
g50
I113
sg131
I92
sg79
I307
stp325
Rp326
sg200
F-14.857323897588989
sg201
F1.0
sg202
g203
sg206
Nsg204
g205
sg207
I50
sbsbag0
(g8
g2
Ntp327
Rp328
(dp329
g12
F-1721.7310828883633
sg13
g0
(g14
g2
Ntp330
Rp331
(dp332
g18
F-1721.7310828883633
sg19
Nsg20
F1.0
sg21
g0
(g22
g2
Ntp333
Rp334
(dp335
g26
g27
sg28
Nsg29
g334
sg30
(lp336
g0
(g22
g2
Ntp337
Rp338
(dp339
g26
g167
sg28
g334
sg29
g338
sg30
(lp340
g0
(g22
g2
Ntp341
Rp342
(dp343
g26
g35
sg28
g338
sg29
g0
(g22
g2
Ntp344
Rp345
g343
bsg30
(lp346
g0
(g22
g2
Ntp347
Rp348
(dp349
g26
g40
sg28
g342
sg29
g348
sg30
(lp350
g0
(g22
g2
Ntp351
Rp352
(dp353
g26
g83
sg28
g348
sg29
g352
sg30
(lp354
g0
(g22
g2
Ntp355
Rp356
(dp357
g26
g108
sg28
g352
sg29
g356
sg30
Nsg51
g52
sg53
Nsbasg51
g88
sg53
Nsbasg51
g89
sg53
Nsbasg51
g90
sg53
Nsbag0
(g22
g2
Ntp358
Rp359
(dp360
g26
g35
sg28
g338
sg29
g359
sg30
(lp361
g0
(g22
g2
Ntp362
Rp363
(dp364
g26
g40
sg28
g359
sg29
g363
sg30
(lp365
g0
(g22
g2
Ntp366
Rp367
(dp368
g26
g45
sg28
g363
sg29
g367
sg30
(lp369
g0
(g22
g2
Ntp370
Rp371
(dp372
g26
g131
sg28
g367
sg29
g371
sg30
Nsg51
g52
sg53
Nsbag0
(g22
g2
Ntp373
Rp374
(dp375
g26
g45
sg28
g367
sg29
g374
sg30
(lp376
g0
(g22
g2
Ntp377
Rp378
(dp379
g26
g131
sg28
g374
sg29
g378
sg30
Nsg51
g52
sg53
Nsbag0
(g22
g2
Ntp380
Rp381
(dp382
g26
g83
sg28
g374
sg29
g381
sg30
(lp383
g0
(g22
g2
Ntp384
Rp385
(dp386
g26
g50
sg28
g381
sg29
g385
sg30
Nsg51
g52
sg53
Nsbasg51
g88
sg53
Nsbasg51
g88
sg53
Nsbasg51
g88
sg53
Nsbasg51
g89
sg53
Nsbasg51
g90
sg53
Nsbasg51
g90
sg53
Nsbasg51
g91
sg53
Nsbsg92
F-1708.2600533518942
sg93
g94
sg172
Nsg29
g174
sg61
Nsg195
g196
((dp387
S'g m'
p388
I352
sS'g k'
p389
I160
stp390
Rp391
sg200
F-13.471029536469096
sg201
F1.0
sg202
g203
sg206
Nsg204
g205
sg207
I50
sbsbag0
(g8
g2
Ntp392
Rp393
(dp394
g12
F-1723.117377249483
sg13
g0
(g14
g2
Ntp395
Rp396
(dp397
g18
F-1723.117377249483
sg19
Nsg20
F1.0
sg21
g0
(g22
g2
Ntp398
Rp399
(dp400
g26
g27
sg28
Nsg29
g399
sg30
(lp401
g0
(g22
g2
Ntp402
Rp403
(dp404
g26
g35
sg28
g399
sg29
g403
sg30
(lp405
g0
(g22
g2
Ntp406
Rp407
(dp408
g26
g40
sg28
g403
sg29
g407
sg30
(lp409
g0
(g22
g2
Ntp410
Rp411
(dp412
g26
g45
sg28
g407
sg29
g411
sg30
(lp413
g0
(g22
g2
Ntp414
Rp415
(dp416
g26
g79
sg28
g411
sg29
g415
sg30
Nsg51
g52
sg53
Nsbag0
(g22
g2
Ntp417
Rp418
(dp419
g26
g45
sg28
g411
sg29
g418
sg30
(lp420
g0
(g22
g2
Ntp421
Rp422
(dp423
g26
g71
sg28
g418
sg29
g422
sg30
Nsg51
g52
sg53
Nsbag0
(g22
g2
Ntp424
Rp425
(dp426
g26
g45
sg28
g418
sg29
g425
sg30
(lp427
g0
(g22
g2
Ntp428
Rp429
(dp430
g26
g61
sg28
g425
sg29
g429
sg30
Nsg51
g52
sg53
Nsbag0
(g22
g2
Ntp431
Rp432
(dp433
g26
g45
sg28
g425
sg29
g0
(g22
g2
Ntp434
Rp435
g433
bsg30
(lp436
g0
(g22
g2
Ntp437
Rp438
(dp439
g26
g108
sg28
g432
sg29
g438
sg30
Nsg51
g52
sg53
Nsbag0
(g22
g2
Ntp440
Rp441
(dp442
g26
g83
sg28
g432
sg29
g441
sg30
(lp443
g0
(g22
g2
Ntp444
Rp445
(dp446
g26
g114
sg28
g441
sg29
g445
sg30
Nsg51
g52
sg53
Nsbasg51
g88
sg53
Nsbasg51
g88
sg53
Nsbasg51
g88
sg53
Nsbasg51
g88
sg53
Nsbasg51
g88
sg53
Nsbasg51
g89
sg53
Nsbasg51
g90
sg53
Nsbasg51
g91
sg53
Nsbsg92
F-1708.2600533518942
sg93
g94
sg172
Nsg29
g174
sg61
Nsg195
g196
((dp447
g71
I101
sg114
I101
sg61
I89
sg108
I118
sg79
I103
stp448
Rp449
sg200
F-14.857323897588989
sg201
F1.0
sg202
g203
sg206
Nsg204
g205
sg207
I50
sbsbag0
(g8
g2
Ntp450
Rp451
(dp452
g12
F-1723.117377249483
sg13
g0
(g14
g2
Ntp453
Rp454
(dp455
g18
F-1723.117377249483
sg19
Nsg20
F1.0
sg21
g0
(g22
g2
Ntp456
Rp457
(dp458
g26
g27
sg28
Nsg29
g457
sg30
(lp459
g0
(g22
g2
Ntp460
Rp461
(dp462
g26
g35
sg28
g457
sg29
g461
sg30
(lp463
g0
(g22
g2
Ntp464
Rp465
(dp466
g26
g40
sg28
g461
sg29
g465
sg30
(lp467
g0
(g22
g2
Ntp468
Rp469
(dp470
g26
g45
sg28
g465
sg29
g469
sg30
(lp471
g0
(g22
g2
Ntp472
Rp473
(dp474
g26
g50
sg28
g469
sg29
g473
sg30
Nsg51
g52
sg53
Nsbag0
(g22
g2
Ntp475
Rp476
(dp477
g26
g45
sg28
g469
sg29
g476
sg30
(lp478
g0
(g22
g2
Ntp479
Rp480
(dp481
g26
g121
sg28
g476
sg29
g480
sg30
Nsg51
g52
sg53
Nsbag0
(g22
g2
Ntp482
Rp483
(dp484
g26
g45
sg28
g476
sg29
g0
(g22
g2
Ntp485
Rp486
g484
bsg30
(lp487
g0
(g22
g2
Ntp488
Rp489
(dp490
g26
g79
sg28
g483
sg29
g489
sg30
Nsg51
g52
sg53
Nsbag0
(g22
g2
Ntp491
Rp492
(dp493
g26
g45
sg28
g483
sg29
g492
sg30
(lp494
g0
(g22
g2
Ntp495
Rp496
(dp497
g26
g121
sg28
g492
sg29
g496
sg30
Nsg51
g52
sg53
Nsbag0
(g22
g2
Ntp498
Rp499
(dp500
g26
g83
sg28
g492
sg29
g499
sg30
(lp501
g0
(g22
g2
Ntp502
Rp503
(dp504
g26
g71
sg28
g499
sg29
g503
sg30
Nsg51
g52
sg53
Nsbasg51
g88
sg53
Nsbasg51
g88
sg53
Nsbasg51
g88
sg53
Nsbasg51
g88
sg53
Nsbasg51
g88
sg53
Nsbasg51
g89
sg53
Nsbasg51
g90
sg53
Nsbasg51
g91
sg53
Nsbsg92
F-1708.2600533518942
sg93
g94
sg172
Nsg29
g174
sg61
Nsg195
g196
((dp505
g50
I120
sg79
I96
sg121
I208
sg71
I88
stp506
Rp507
sg200
F-14.857323897588989
sg201
F1.0
sg202
g203
sg206
Nsg204
g205
sg207
I50
sbsbag0
(g8
g2
Ntp508
Rp509
(dp510
g12
F-1720.227005491587
sg13
g0
(g14
g2
Ntp511
Rp512
(dp513
g18
F-1720.227005491587
sg19
Nsg20
F1.0
sg21
g0
(g22
g2
Ntp514
Rp515
(dp516
g26
g27
sg28
Nsg29
g515
sg30
(lp517
g0
(g22
g2
Ntp518
Rp519
(dp520
g26
g35
sg28
g515
sg29
g519
sg30
(lp521
g0
(g22
g2
Ntp522
Rp523
(dp524
g26
g40
sg28
g519
sg29
g523
sg30
(lp525
g0
(g22
g2
Ntp526
Rp527
(dp528
g26
g45
sg28
g523
sg29
g0
(g22
g2
Ntp529
Rp530
g528
bsg30
(lp531
g0
(g22
g2
Ntp532
Rp533
(dp534
g26
g108
sg28
g527
sg29
g533
sg30
Nsg51
g52
sg53
Nsbag0
(g22
g2
Ntp535
Rp536
(dp537
g26
g45
sg28
g527
sg29
g536
sg30
(lp538
g0
(g22
g2
Ntp539
Rp540
(dp541
g26
g135
sg28
g536
sg29
g540
sg30
Nsg51
g52
sg53
Nsbag0
(g22
g2
Ntp542
Rp543
(dp544
g26
g45
sg28
g536
sg29
g543
sg30
(lp545
g0
(g22
g2
Ntp546
Rp547
(dp548
g26
g79
sg28
g543
sg29
g547
sg30
Nsg51
g52
sg53
Nsbag0
(g22
g2
Ntp549
Rp550
(dp551
g26
g83
sg28
g543
sg29
g550
sg30
(lp552
g0
(g22
g2
Ntp553
Rp554
(dp555
g26
g121
sg28
g550
sg29
g554
sg30
Nsg51
g52
sg53
Nsbasg51
g88
sg53
Nsbasg51
g88
sg53
Nsbasg51
g88
sg53
Nsbasg51
g88
sg53
Nsbasg51
g89
sg53
Nsbasg51
g90
sg53
Nsbasg51
g91
sg53
Nsbsg92
F-1708.2600533518942
sg93
g94
sg172
Nsg29
g174
sg61
Nsg195
g196
((dp556
g135
I125
sg121
I138
sg108
I129
sg79
I120
stp557
Rp558
sg200
F-11.966952139692824
sg201
F1.0
sg202
g203
sg206
Nsg204
g205
sg207
I50
sbsbag0
(g8
g2
Ntp559
Rp560
(dp561
g12
F-1718.840711130467
sg13
g0
(g14
g2
Ntp562
Rp563
(dp564
g18
F-1718.840711130467
sg19
Nsg20
F1.0
sg21
g0
(g22
g2
Ntp565
Rp566
(dp567
g26
g27
sg28
Nsg29
g566
sg30
(lp568
g0
(g22
g2
Ntp569
Rp570
(dp571
g26
g167
sg28
g566
sg29
g570
sg30
(lp572
g0
(g22
g2
Ntp573
Rp574
(dp575
g26
g35
sg28
g570
sg29
g574
sg30
(lp576
g0
(g22
g2
Ntp577
Rp578
(dp579
g26
g40
sg28
g574
sg29
g578
sg30
(lp580
g0
(g22
g2
Ntp581
Rp582
(dp583
g26
g83
sg28
g578
sg29
g582
sg30
(lp584
g0
(g22
g2
Ntp585
Rp586
(dp587
g26
g108
sg28
g582
sg29
g586
sg30
Nsg51
g52
sg53
Nsbasg51
g88
sg53
Nsbasg51
g89
sg53
Nsbasg51
g90
sg53
Nsbag0
(g22
g2
Ntp588
Rp589
(dp590
g26
g35
sg28
g570
sg29
g589
sg30
(lp591
g0
(g22
g2
Ntp592
Rp593
(dp594
g26
g40
sg28
g589
sg29
g0
(g22
g2
Ntp595
Rp596
g594
bsg30
(lp597
g0
(g22
g2
Ntp598
Rp599
(dp600
g26
g45
sg28
g593
sg29
g599
sg30
(lp601
g0
(g22
g2
Ntp602
Rp603
(dp604
g26
g71
sg28
g599
sg29
g603
sg30
Nsg51
g52
sg53
Nsbag0
(g22
g2
Ntp605
Rp606
(dp607
g26
g83
sg28
g599
sg29
g606
sg30
(lp608
g0
(g22
g2
Ntp609
Rp610
(dp611
g26
g135
sg28
g606
sg29
g610
sg30
Nsg51
g52
sg53
Nsbasg51
g88
sg53
Nsbasg51
g88
sg53
Nsbasg51
g89
sg53
Nsbasg51
g90
sg53
Nsbasg51
g90
sg53
Nsbasg51
g91
sg53
Nsbsg92
F-1708.2600533518942
sg93
g94
sg172
Nsg29
g174
sg61
Nsg195
g196
((dp612
S'g n'
p613
I266
sS'g h'
p614
I246
stp615
Rp616
sg200
F-10.580657778572933
sg201
F1.0
sg202
g203
sg206
Nsg204
g205
sg207
I50
sbsbag0
(g8
g2
Ntp617
Rp618
(dp619
g12
F-1721.7310828883633
sg13
g0
(g14
g2
Ntp620
Rp621
(dp622
g18
F-1721.7310828883633
sg19
Nsg20
F1.0
sg21
g0
(g22
g2
Ntp623
Rp624
(dp625
g26
g27
sg28
Nsg29
g624
sg30
(lp626
g0
(g22
g2
Ntp627
Rp628
(dp629
g26
g167
sg28
g624
sg29
g628
sg30
(lp630
g0
(g22
g2
Ntp631
Rp632
(dp633
g26
g35
sg28
g628
sg29
g632
sg30
(lp634
g0
(g22
g2
Ntp635
Rp636
(dp637
g26
g40
sg28
g632
sg29
g636
sg30
(lp638
g0
(g22
g2
Ntp639
Rp640
(dp641
g26
g83
sg28
g636
sg29
g640
sg30
(lp642
g0
(g22
g2
Ntp643
Rp644
(dp645
g26
g131
sg28
g640
sg29
g644
sg30
Nsg51
g52
sg53
Nsbasg51
g88
sg53
Nsbasg51
g89
sg53
Nsbasg51
g90
sg53
Nsbag0
(g22
g2
Ntp646
Rp647
(dp648
g26
g35
sg28
g628
sg29
g647
sg30
(lp649
g0
(g22
g2
Ntp650
Rp651
(dp652
g26
g40
sg28
g647
sg29
g651
sg30
(lp653
g0
(g22
g2
Ntp654
Rp655
(dp656
g26
g45
sg28
g651
sg29
g655
sg30
(lp657
g0
(g22
g2
Ntp658
Rp659
(dp660
g26
g135
sg28
g655
sg29
g659
sg30
Nsg51
g52
sg53
Nsbag0
(g22
g2
Ntp661
Rp662
(dp663
g26
g45
sg28
g655
sg29
g662
sg30
(lp664
g0
(g22
g2
Ntp665
Rp666
(dp667
g26
g108
sg28
g662
sg29
g666
sg30
Nsg51
g52
sg53
Nsbag0
(g22
g2
Ntp668
Rp669
(dp670
g26
g83
sg28
g662
sg29
g0
(g22
g2
Ntp671
Rp672
g670
bsg30
(lp673
g0
(g22
g2
Ntp674
Rp675
(dp676
g26
g50
sg28
g669
sg29
g675
sg30
Nsg51
g52
sg53
Nsbasg51
g88
sg53
Nsbasg51
g88
sg53
Nsbasg51
g88
sg53
Nsbasg51
g89
sg53
Nsbasg51
g90
sg53
Nsbasg51
g90
sg53
Nsbasg51
g91
sg53
Nsbsg92
F-1708.2600533518942
sg93
g94
sg172
Nsg29
g174
sg61
Nsg195
g196
((dp677
S'm g'
p678
I164
sS'm k'
p679
I176
sS'm h'
p680
I172
stp681
Rp682
sg200
F-13.471029536469096
sg201
F1.0
sg202
g203
sg206
Nsg204
g205
sg207
I50
sbsbag0
(g8
g2
Ntp683
Rp684
(dp685
g12
F-1723.117377249483
sg13
g0
(g14
g2
Ntp686
Rp687
(dp688
g18
F-1723.117377249483
sg19
Nsg20
F1.0
sg21
g0
(g22
g2
Ntp689
Rp690
(dp691
g26
g27
sg28
Nsg29
g690
sg30
(lp692
g0
(g22
g2
Ntp693
Rp694
(dp695
g26
g35
sg28
g690
sg29
g694
sg30
(lp696
g0
(g22
g2
Ntp697
Rp698
(dp699
g26
g40
sg28
g694
sg29
g698
sg30
(lp700
g0
(g22
g2
Ntp701
Rp702
(dp703
g26
g45
sg28
g698
sg29
g702
sg30
(lp704
g0
(g22
g2
Ntp705
Rp706
(dp707
g26
g71
sg28
g702
sg29
g706
sg30
Nsg51
g52
sg53
Nsbag0
(g22
g2
Ntp708
Rp709
(dp710
g26
g45
sg28
g702
sg29
g709
sg30
(lp711
g0
(g22
g2
Ntp712
Rp713
(dp714
g26
g71
sg28
g709
sg29
g713
sg30
Nsg51
g52
sg53
Nsbag0
(g22
g2
Ntp715
Rp716
(dp717
g26
g45
sg28
g709
sg29
g716
sg30
(lp718
g0
(g22
g2
Ntp719
Rp720
(dp721
g26
g50
sg28
g716
sg29
g720
sg30
Nsg51
g52
sg53
Nsbag0
(g22
g2
Ntp722
Rp723
(dp724
g26
g45
sg28
g716
sg29
g0
(g22
g2
Ntp725
Rp726
g724
bsg30
(lp727
g0
(g22
g2
Ntp728
Rp729
(dp730
g26
g79
sg28
g723
sg29
g729
sg30
Nsg51
g52
sg53
Nsbag0
(g22
g2
Ntp731
Rp732
(dp733
g26
g83
sg28
g723
sg29
g732
sg30
(lp734
g0
(g22
g2
Ntp735
Rp736
(dp737
g26
g131
sg28
g732
sg29
g736
sg30
Nsg51
g52
sg53
Nsbasg51
g88
sg53
Nsbasg51
g88
sg53
Nsbasg51
g88
sg53
Nsbasg51
g88
sg53
Nsbasg51
g88
sg53
Nsbasg51
g89
sg53
Nsbasg51
g90
sg53
Nsbasg51
g91
sg53
Nsbsg92
F-1708.2600533518942
sg93
g94
sg172
Nsg29
g174
sg61
Nsg195
g196
((dp738
g50
I115
sg71
I190
sg131
I107
sg79
I100
stp739
Rp740
sg200
F-14.857323897588989
sg201
F1.0
sg202
g203
sg206
Nsg204
g205
sg207
I50
sbsbag0
(g8
g2
Ntp741
Rp742
(dp743
g12
F-1723.117377249483
sg13
g0
(g14
g2
Ntp744
Rp745
(dp746
g18
F-1723.117377249483
sg19
Nsg20
F1.0
sg21
g0
(g22
g2
Ntp747
Rp748
(dp749
g26
g27
sg28
Nsg29
g748
sg30
(lp750
g0
(g22
g2
Ntp751
Rp752
(dp753
g26
g35
sg28
g748
sg29
g752
sg30
(lp754
g0
(g22
g2
Ntp755
Rp756
(dp757
g26
g40
sg28
g752
sg29
g756
sg30
(lp758
g0
(g22
g2
Ntp759
Rp760
(dp761
g26
g45
sg28
g756
sg29
g760
sg30
(lp762
g0
(g22
g2
Ntp763
Rp764
(dp765
g26
g79
sg28
g760
sg29
g764
sg30
Nsg51
g52
sg53
Nsbag0
(g22
g2
Ntp766
Rp767
(dp768
g26
g45
sg28
g760
sg29
g767
sg30
(lp769
g0
(g22
g2
Ntp770
Rp771
(dp772
g26
g71
sg28
g767
sg29
g771
sg30
Nsg51
g52
sg53
Nsbag0
(g22
g2
Ntp773
Rp774
(dp775
g26
g45
sg28
g767
sg29
g0
(g22
g2
Ntp776
Rp777
g775
bsg30
(lp778
g0
(g22
g2
Ntp779
Rp780
(dp781
g26
g50
sg28
g774
sg29
g780
sg30
Nsg51
g52
sg53
Nsbag0
(g22
g2
Ntp782
Rp783
(dp784
g26
g45
sg28
g774
sg29
g783
sg30
(lp785
g0
(g22
g2
Ntp786
Rp787
(dp788
g26
g114
sg28
g783
sg29
g787
sg30
Nsg51
g52
sg53
Nsbag0
(g22
g2
Ntp789
Rp790
(dp791
g26
g83
sg28
g783
sg29
g790
sg30
(lp792
g0
(g22
g2
Ntp793
Rp794
(dp795
g26
g71
sg28
g790
sg29
g794
sg30
Nsg51
g52
sg53
Nsbasg51
g88
sg53
Nsbasg51
g88
sg53
Nsbasg51
g88
sg53
Nsbasg51
g88
sg53
Nsbasg51
g88
sg53
Nsbasg51
g89
sg53
Nsbasg51
g90
sg53
Nsbasg51
g91
sg53
Nsbsg92
F-1708.2600533518942
sg93
g94
sg172
Nsg29
g174
sg61
Nsg195
g196
((dp796
g50
I96
sg71
I197
sg114
I107
sg79
I112
stp797
Rp798
sg200
F-14.857323897588989
sg201
F1.0
sg202
g203
sg206
Nsg204
g205
sg207
I50
sbsbag0
(g8
g2
Ntp799
Rp800
(dp801
g12
F-1723.117377249483
sg13
g0
(g14
g2
Ntp802
Rp803
(dp804
g18
F-1723.117377249483
sg19
Nsg20
F1.0
sg21
g0
(g22
g2
Ntp805
Rp806
(dp807
g26
g27
sg28
Nsg29
g806
sg30
(lp808
g0
(g22
g2
Ntp809
Rp810
(dp811
g26
g35
sg28
g806
sg29
g810
sg30
(lp812
g0
(g22
g2
Ntp813
Rp814
(dp815
g26
g40
sg28
g810
sg29
g814
sg30
(lp816
g0
(g22
g2
Ntp817
Rp818
(dp819
g26
g45
sg28
g814
sg29
g818
sg30
(lp820
g0
(g22
g2
Ntp821
Rp822
(dp823
g26
g71
sg28
g818
sg29
g0
(g22
g2
Ntp824
Rp825
g823
bsg30
Nsg51
g52
sg53
Nsbag0
(g22
g2
Ntp826
Rp827
(dp828
g26
g45
sg28
g818
sg29
g827
sg30
(lp829
g0
(g22
g2
Ntp830
Rp831
(dp832
g26
g71
sg28
g827
sg29
g831
sg30
Nsg51
g52
sg53
Nsbag0
(g22
g2
Ntp833
Rp834
(dp835
g26
g45
sg28
g827
sg29
g834
sg30
(lp836
g0
(g22
g2
Ntp837
Rp838
(dp839
g26
g50
sg28
g834
sg29
g838
sg30
Nsg51
g52
sg53
Nsbag0
(g22
g2
Ntp840
Rp841
(dp842
g26
g45
sg28
g834
sg29
g841
sg30
(lp843
g0
(g22
g2
Ntp844
Rp845
(dp846
g26
g114
sg28
g841
sg29
g845
sg30
Nsg51
g52
sg53
Nsbag0
(g22
g2
Ntp847
Rp848
(dp849
g26
g83
sg28
g841
sg29
g848
sg30
(lp850
g0
(g22
g2
Ntp851
Rp852
(dp853
g26
g71
sg28
g848
sg29
g852
sg30
Nsg51
g52
sg53
Nsbasg51
g88
sg53
Nsbasg51
g88
sg53
Nsbasg51
g88
sg53
Nsbasg51
g88
sg53
Nsbasg51
g88
sg53
Nsbasg51
g89
sg53
Nsbasg51
g90
sg53
Nsbasg51
g91
sg53
Nsbsg92
F-1708.2600533518942
sg93
g94
sg172
Nsg29
g174
sg61
Nsg195
g196
((dp854
g50
I106
sg114
I109
sg71
I297
stp855
Rp856
sg200
F-14.857323897588989
sg201
F1.0
sg202
g203
sg206
Nsg204
g205
sg207
I50
sbsbag0
(g8
g2
Ntp857
Rp858
(dp859
g12
F-1720.227005491587
sg13
g0
(g14
g2
Ntp860
Rp861
(dp862
g18
F-1720.227005491587
sg19
Nsg20
F1.0
sg21
g0
(g22
g2
Ntp863
Rp864
(dp865
g26
g27
sg28
Nsg29
g864
sg30
(lp866
g0
(g22
g2
Ntp867
Rp868
(dp869
g26
g35
sg28
g864
sg29
g0
(g22
g2
Ntp870
Rp871
g869
bsg30
(lp872
g0
(g22
g2
Ntp873
Rp874
(dp875
g26
g40
sg28
g868
sg29
g874
sg30
(lp876
g0
(g22
g2
Ntp877
Rp878
(dp879
g26
g45
sg28
g874
sg29
g878
sg30
(lp880
g0
(g22
g2
Ntp881
Rp882
(dp883
g26
g121
sg28
g878
sg29
g882
sg30
Nsg51
g52
sg53
Nsbag0
(g22
g2
Ntp884
Rp885
(dp886
g26
g45
sg28
g878
sg29
g885
sg30
(lp887
g0
(g22
g2
Ntp888
Rp889
(dp890
g26
g50
sg28
g885
sg29
g889
sg30
Nsg51
g52
sg53
Nsbag0
(g22
g2
Ntp891
Rp892
(dp893
g26
g45
sg28
g885
sg29
g892
sg30
(lp894
g0
(g22
g2
Ntp895
Rp896
(dp897
g26
g108
sg28
g892
sg29
g896
sg30
Nsg51
g52
sg53
Nsbag0
(g22
g2
Ntp898
Rp899
(dp900
g26
g83
sg28
g892
sg29
g899
sg30
(lp901
g0
(g22
g2
Ntp902
Rp903
(dp904
g26
g135
sg28
g899
sg29
g903
sg30
Nsg51
g52
sg53
Nsbasg51
g88
sg53
Nsbasg51
g88
sg53
Nsbasg51
g88
sg53
Nsbasg51
g88
sg53
Nsbasg51
g89
sg53
Nsbasg51
g90
sg53
Nsbasg51
g91
sg53
Nsbsg92
F-1708.2600533518942
sg93
g94
sg172
Nsg29
g174
sg61
Nsg195
g196
((dp905
g135
I129
sg121
I119
sg50
I117
sg108
I147
stp906
Rp907
sg200
F-11.966952139692824
sg201
F1.0
sg202
g203
sg206
Nsg204
g205
sg207
I50
sbsbag0
(g8
g2
Ntp908
Rp909
(dp910
g12
F-1720.227005491587
sg13
g0
(g14
g2
Ntp911
Rp912
(dp913
g18
F-1720.227005491587
sg19
Nsg20
F1.0
sg21
g0
(g22
g2
Ntp914
Rp915
(dp916
g26
g27
sg28
Nsg29
g915
sg30
(lp917
g0
(g22
g2
Ntp918
Rp919
(dp920
g26
g35
sg28
g915
sg29
g0
(g22
g2
Ntp921
Rp922
g920
bsg30
(lp923
g0
(g22
g2
Ntp924
Rp925
(dp926
g26
g40
sg28
g919
sg29
g925
sg30
(lp927
g0
(g22
g2
Ntp928
Rp929
(dp930
g26
g45
sg28
g925
sg29
g929
sg30
(lp931
g0
(g22
g2
Ntp932
Rp933
(dp934
g26
g135
sg28
g929
sg29
g933
sg30
Nsg51
g52
sg53
Nsbag0
(g22
g2
Ntp935
Rp936
(dp937
g26
g45
sg28
g929
sg29
g936
sg30
(lp938
g0
(g22
g2
Ntp939
Rp940
(dp941
g26
g71
sg28
g936
sg29
g940
sg30
Nsg51
g52
sg53
Nsbag0
(g22
g2
Ntp942
Rp943
(dp944
g26
g45
sg28
g936
sg29
g943
sg30
(lp945
g0
(g22
g2
Ntp946
Rp947
(dp948
g26
g108
sg28
g943
sg29
g947
sg30
Nsg51
g52
sg53
Nsbag0
(g22
g2
Ntp949
Rp950
(dp951
g26
g83
sg28
g943
sg29
g950
sg30
(lp952
g0
(g22
g2
Ntp953
Rp954
(dp955
g26
g108
sg28
g950
sg29
g954
sg30
Nsg51
g52
sg53
Nsbasg51
g88
sg53
Nsbasg51
g88
sg53
Nsbasg51
g88
sg53
Nsbasg51
g88
sg53
Nsbasg51
g89
sg53
Nsbasg51
g90
sg53
Nsbasg51
g91
sg53
Nsbsg92
F-1708.2600533518942
sg93
g94
sg172
Nsg29
g174
sg61
Nsg195
g196
((dp956
g135
I134
sg108
I246
sg71
I132
stp957
Rp958
sg200
F-11.966952139692824
sg201
F1.0
sg202
g203
sg206
Nsg204
g205
sg207
I50
sbsbag0
(g8
g2
Ntp959
Rp960
(dp961
g12
F-1717.3366337336909
sg13
g0
(g14
g2
Ntp962
Rp963
(dp964
g18
F-1717.3366337336909
sg19
Nsg20
F1.0
sg21
g0
(g22
g2
Ntp965
Rp966
(dp967
g26
g27
sg28
Nsg29
g966
sg30
(lp968
g0
(g22
g2
Ntp969
Rp970
(dp971
g26
g35
sg28
g966
sg29
g970
sg30
(lp972
g0
(g22
g2
Ntp973
Rp974
(dp975
g26
g40
sg28
g970
sg29
g974
sg30
(lp976
g0
(g22
g2
Ntp977
Rp978
(dp979
g26
g45
sg28
g974
sg29
g978
sg30
(lp980
g0
(g22
g2
Ntp981
Rp982
(dp983
g26
g131
sg28
g978
sg29
g982
sg30
Nsg51
g52
sg53
Nsbag0
(g22
g2
Ntp984
Rp985
(dp986
g26
g45
sg28
g978
sg29
g985
sg30
(lp987
g0
(g22
g2
Ntp988
Rp989
(dp990
g26
g79
sg28
g985
sg29
g0
(g22
g2
Ntp991
Rp992
g990
bsg30
Nsg51
g52
sg53
Nsbag0
(g22
g2
Ntp993
Rp994
(dp995
g26
g83
sg28
g985
sg29
g994
sg30
(lp996
g0
(g22
g2
Ntp997
Rp998
(dp999
g26
g71
sg28
g994
sg29
g998
sg30
Nsg51
g52
sg53
Nsbasg51
g88
sg53
Nsbasg51
g88
sg53
Nsbasg51
g88
sg53
Nsbasg51
g89
sg53
Nsbasg51
g90
sg53
Nsbasg51
g91
sg53
Nsbsg92
F-1708.2600533518942
sg93
g94
sg172
Nsg29
g174
sg61
Nsg195
g196
((dp1000
g71
I177
sg131
I166
sg79
I169
stp1001
Rp1002
sg200
F-9.076580381796658
sg201
F1.0
sg202
g203
sg206
Nsg204
g205
sg207
I50
sbsbag0
(g8
g2
Ntp1003
Rp1004
(dp1005
g12
F-1717.3366337336909
sg13
g0
(g14
g2
Ntp1006
Rp1007
(dp1008
g18
F-1717.3366337336909
sg19
Nsg20
F1.0
sg21
g0
(g22
g2
Ntp1009
Rp1010
(dp1011
g26
g27
sg28
Nsg29
g1010
sg30
(lp1012
g0
(g22
g2
Ntp1013
Rp1014
(dp1015
g26
g35
sg28
g1010
sg29
g1014
sg30
(lp1016
g0
(g22
g2
Ntp1017
Rp1018
(dp1019
g26
g40
sg28
g1014
sg29
g1018
sg30
(lp1020
g0
(g22
g2
Ntp1021
Rp1022
(dp1023
g26
g45
sg28
g1018
sg29
g1022
sg30
(lp1024
g0
(g22
g2
Ntp1025
Rp1026
(dp1027
g26
g79
sg28
g1022
sg29
g1026
sg30
Nsg51
g52
sg53
Nsbag0
(g22
g2
Ntp1028
Rp1029
(dp1030
g26
g45
sg28
g1022
sg29
g1029
sg30
(lp1031
g0
(g22
g2
Ntp1032
Rp1033
(dp1034
g26
g71
sg28
g1029
sg29
g1033
sg30
Nsg51
g52
sg53
Nsbag0
(g22
g2
Ntp1035
Rp1036
(dp1037
g26
g83
sg28
g1029
sg29
g0
(g22
g2
Ntp1038
Rp1039
g1037
bsg30
(lp1040
g0
(g22
g2
Ntp1041
Rp1042
(dp1043
g26
g61
sg28
g1036
sg29
g1042
sg30
Nsg51
g52
sg53
Nsbasg51
g88
sg53
Nsbasg51
g88
sg53
Nsbasg51
g88
sg53
Nsbasg51
g89
sg53
Nsbasg51
g90
sg53
Nsbasg51
g91
sg53
Nsbsg92
F-1708.2600533518942
sg93
g94
sg172
Nsg29
g174
sg61
Nsg195
g196
((dp1044
g79
I174
sg61
I170
sg71
I168
stp1045
Rp1046
sg200
F-9.076580381796658
sg201
F1.0
sg202
g203
sg206
Nsg204
g205
sg207
I50
sbsbag0
(g8
g2
Ntp1047
Rp1048
(dp1049
g12
F-1717.3366337336909
sg13
g0
(g14
g2
Ntp1050
Rp1051
(dp1052
g18
F-1717.3366337336909
sg19
Nsg20
F1.0
sg21
g0
(g22
g2
Ntp1053
Rp1054
(dp1055
g26
g27
sg28
Nsg29
g1054
sg30
(lp1056
g0
(g22
g2
Ntp1057
Rp1058
(dp1059
g26
g35
sg28
g1054
sg29
g1058
sg30
(lp1060
g0
(g22
g2
Ntp1061
Rp1062
(dp1063
g26
g40
sg28
g1058
sg29
g1062
sg30
(lp1064
g0
(g22
g2
Ntp1065
Rp1066
(dp1067
g26
g45
sg28
g1062
sg29
g1066
sg30
(lp1068
g0
(g22
g2
Ntp1069
Rp1070
(dp1071
g26
g114
sg28
g1066
sg29
g1070
sg30
Nsg51
g52
sg53
Nsbag0
(g22
g2
Ntp1072
Rp1073
(dp1074
g26
g45
sg28
g1066
sg29
g0
(g22
g2
Ntp1075
Rp1076
g1074
bsg30
(lp1077
g0
(g22
g2
Ntp1078
Rp1079
(dp1080
g26
g79
sg28
g1073
sg29
g1079
sg30
Nsg51
g52
sg53
Nsbag0
(g22
g2
Ntp1081
Rp1082
(dp1083
g26
g83
sg28
g1073
sg29
g1082
sg30
(lp1084
g0
(g22
g2
Ntp1085
Rp1086
(dp1087
g26
g114
sg28
g1082
sg29
g1086
sg30
Nsg51
g52
sg53
Nsbasg51
g88
sg53
Nsbasg51
g88
sg53
Nsbasg51
g88
sg53
Nsbasg51
g89
sg53
Nsbasg51
g90
sg53
Nsbasg51
g91
sg53
Nsbsg92
F-1708.2600533518942
sg93
g94
sg172
Nsg29
g174
sg61
Nsg195
g196
((dp1088
g114
I339
sg79
I173
stp1089
Rp1090
sg200
F-9.076580381796658
sg201
F1.0
sg202
g203
sg206
Nsg204
g205
sg207
I50
sbsbag0
(g8
g2
Ntp1091
Rp1092
(dp1093
g12
F-1721.7310828883633
sg13
g0
(g14
g2
Ntp1094
Rp1095
(dp1096
g18
F-1721.7310828883633
sg19
Nsg20
F1.0
sg21
g0
(g22
g2
Ntp1097
Rp1098
(dp1099
g26
g27
sg28
Nsg29
g1098
sg30
(lp1100
g0
(g22
g2
Ntp1101
Rp1102
(dp1103
g26
g167
sg28
g1098
sg29
g1102
sg30
(lp1104
g0
(g22
g2
Ntp1105
Rp1106
(dp1107
g26
g35
sg28
g1102
sg29
g1106
sg30
(lp1108
g0
(g22
g2
Ntp1109
Rp1110
(dp1111
g26
g40
sg28
g1106
sg29
g1110
sg30
(lp1112
g0
(g22
g2
Ntp1113
Rp1114
(dp1115
g26
g83
sg28
g1110
sg29
g1114
sg30
(lp1116
g0
(g22
g2
Ntp1117
Rp1118
(dp1119
g26
g131
sg28
g1114
sg29
g1118
sg30
Nsg51
g52
sg53
Nsbasg51
g88
sg53
Nsbasg51
g89
sg53
Nsbasg51
g90
sg53
Nsbag0
(g22
g2
Ntp1120
Rp1121
(dp1122
g26
g35
sg28
g1102
sg29
g1121
sg30
(lp1123
g0
(g22
g2
Ntp1124
Rp1125
(dp1126
g26
g40
sg28
g1121
sg29
g0
(g22
g2
Ntp1127
Rp1128
g1126
bsg30
(lp1129
g0
(g22
g2
Ntp1130
Rp1131
(dp1132
g26
g45
sg28
g1125
sg29
g1131
sg30
(lp1133
g0
(g22
g2
Ntp1134
Rp1135
(dp1136
g26
g131
sg28
g1131
sg29
g1135
sg30
Nsg51
g52
sg53
Nsbag0
(g22
g2
Ntp1137
Rp1138
(dp1139
g26
g45
sg28
g1131
sg29
g1138
sg30
(lp1140
g0
(g22
g2
Ntp1141
Rp1142
(dp1143
g26
g131
sg28
g1138
sg29
g1142
sg30
Nsg51
g52
sg53
Nsbag0
(g22
g2
Ntp1144
Rp1145
(dp1146
g26
g83
sg28
g1138
sg29
g1145
sg30
(lp1147
g0
(g22
g2
Ntp1148
Rp1149
(dp1150
g26
g50
sg28
g1145
sg29
g1149
sg30
Nsg51
g52
sg53
Nsbasg51
g88
sg53
Nsbasg51
g88
sg53
Nsbasg51
g88
sg53
Nsbasg51
g89
sg53
Nsbasg51
g90
sg53
Nsbasg51
g90
sg53
Nsbasg51
g91
sg53
Nsbsg92
F-1708.2600533518942
sg93
g94
sg172
Nsg29
g174
sg61
Nsg195
g196
((dp1151
S'm m'
p1152
I334
sS'm k'
p1153
I178
stp1154
Rp1155
sg200
F-13.471029536469096
sg201
F1.0
sg202
g203
sg206
Nsg204
g205
sg207
I50
sbsbag0
(g8
g2
Ntp1156
Rp1157
(dp1158
g12
F-1718.840711130467
sg13
g0
(g14
g2
Ntp1159
Rp1160
(dp1161
g18
F-1718.840711130467
sg19
Nsg20
F1.0
sg21
g0
(g22
g2
Ntp1162
Rp1163
(dp1164
g26
g27
sg28
Nsg29
g1163
sg30
(lp1165
g0
(g22
g2
Ntp1166
Rp1167
(dp1168
g26
g167
sg28
g1163
sg29
g1167
sg30
(lp1169
g0
(g22
g2
Ntp1170
Rp1171
(dp1172
g26
g35
sg28
g1167
sg29
g1171
sg30
(lp1173
g0
(g22
g2
Ntp1174
Rp1175
(dp1176
g26
g40
sg28
g1171
sg29
g1175
sg30
(lp1177
g0
(g22
g2
Ntp1178
Rp1179
(dp1180
g26
g83
sg28
g1175
sg29
g1179
sg30
(lp1181
g0
(g22
g2
Ntp1182
Rp1183
(dp1184
g26
g108
sg28
g1179
sg29
g1183
sg30
Nsg51
g52
sg53
Nsbasg51
g88
sg53
Nsbasg51
g89
sg53
Nsbasg51
g90
sg53
Nsbag0
(g22
g2
Ntp1185
Rp1186
(dp1187
g26
g35
sg28
g1167
sg29
g1186
sg30
(lp1188
g0
(g22
g2
Ntp1189
Rp1190
(dp1191
g26
g40
sg28
g1186
sg29
g1190
sg30
(lp1192
g0
(g22
g2
Ntp1193
Rp1194
(dp1195
g26
g45
sg28
g1190
sg29
g1194
sg30
(lp1196
g0
(g22
g2
Ntp1197
Rp1198
(dp1199
g26
g50
sg28
g1194
sg29
g0
(g22
g2
Ntp1200
Rp1201
g1199
bsg30
Nsg51
g52
sg53
Nsbag0
(g22
g2
Ntp1202
Rp1203
(dp1204
g26
g83
sg28
g1194
sg29
g1203
sg30
(lp1205
g0
(g22
g2
Ntp1206
Rp1207
(dp1208
g26
g135
sg28
g1203
sg29
g1207
sg30
Nsg51
g52
sg53
Nsbasg51
g88
sg53
Nsbasg51
g88
sg53
Nsbasg51
g89
sg53
Nsbasg51
g90
sg53
Nsbasg51
g90
sg53
Nsbasg51
g91
sg53
Nsbsg92
F-1708.2600533518942
sg93
g94
sg172
Nsg29
g174
sg61
Nsg195
g196
((dp1209
S'g h'
p1210
I249
sS'g k'
p1211
I263
stp1212
Rp1213
sg200
F-10.580657778572933
sg201
F1.0
sg202
g203
sg206
Nsg204
g205
sg207
I50
sbsbag0
(g8
g2
Ntp1214
Rp1215
(dp1216
g12
F-1723.117377249483
sg13
g0
(g14
g2
Ntp1217
Rp1218
(dp1219
g18
F-1723.117377249483
sg19
Nsg20
F1.0
sg21
g0
(g22
g2
Ntp1220
Rp1221
(dp1222
g26
g27
sg28
Nsg29
g1221
sg30
(lp1223
g0
(g22
g2
Ntp1224
Rp1225
(dp1226
g26
g35
sg28
g1221
sg29
g1225
sg30
(lp1227
g0
(g22
g2
Ntp1228
Rp1229
(dp1230
g26
g40
sg28
g1225
sg29
g0
(g22
g2
Ntp1231
Rp1232
g1230
bsg30
(lp1233
g0
(g22
g2
Ntp1234
Rp1235
(dp1236
g26
g45
sg28
g1229
sg29
g1235
sg30
(lp1237
g0
(g22
g2
Ntp1238
Rp1239
(dp1240
g26
g108
sg28
g1235
sg29
g1239
sg30
Nsg51
g52
sg53
Nsbag0
(g22
g2
Ntp1241
Rp1242
(dp1243
g26
g45
sg28
g1235
sg29
g1242
sg30
(lp1244
g0
(g22
g2
Ntp1245
Rp1246
(dp1247
g26
g121
sg28
g1242
sg29
g1246
sg30
Nsg51
g52
sg53
Nsbag0
(g22
g2
Ntp1248
Rp1249
(dp1250
g26
g45
sg28
g1242
sg29
g1249
sg30
(lp1251
g0
(g22
g2
Ntp1252
Rp1253
(dp1254
g26
g121
sg28
g1249
sg29
g1253
sg30
Nsg51
g52
sg53
Nsbag0
(g22
g2
Ntp1255
Rp1256
(dp1257
g26
g45
sg28
g1249
sg29
g1256
sg30
(lp1258
g0
(g22
g2
Ntp1259
Rp1260
(dp1261
g26
g79
sg28
g1256
sg29
g1260
sg30
Nsg51
g52
sg53
Nsbag0
(g22
g2
Ntp1262
Rp1263
(dp1264
g26
g83
sg28
g1256
sg29
g1263
sg30
(lp1265
g0
(g22
g2
Ntp1266
Rp1267
(dp1268
g26
g108
sg28
g1263
sg29
g1267
sg30
Nsg51
g52
sg53
Nsbasg51
g88
sg53
Nsbasg51
g88
sg53
Nsbasg51
g88
sg53
Nsbasg51
g88
sg53
Nsbasg51
g88
sg53
Nsbasg51
g89
sg53
Nsbasg51
g90
sg53
Nsbasg51
g91
sg53
Nsbsg92
F-1708.2600533518942
sg93
g94
sg172
Nsg29
g174
sg61
Nsg195
g196
((dp1269
g121
I222
sg108
I189
sg79
I101
stp1270
Rp1271
sg200
F-14.857323897588989
sg201
F1.0
sg202
g203
sg206
Nsg204
g205
sg207
I50
sbsbag0
(g8
g2
Ntp1272
Rp1273
(dp1274
g12
F-1723.117377249483
sg13
g0
(g14
g2
Ntp1275
Rp1276
(dp1277
g18
F-1723.117377249483
sg19
Nsg20
F1.0
sg21
g0
(g22
g2
Ntp1278
Rp1279
(dp1280
g26
g27
sg28
Nsg29
g1279
sg30
(lp1281
g0
(g22
g2
Ntp1282
Rp1283
(dp1284
g26
g35
sg28
g1279
sg29
g1283
sg30
(lp1285
g0
(g22
g2
Ntp1286
Rp1287
(dp1288
g26
g40
sg28
g1283
sg29
g1287
sg30
(lp1289
g0
(g22
g2
Ntp1290
Rp1291
(dp1292
g26
g45
sg28
g1287
sg29
g1291
sg30
(lp1293
g0
(g22
g2
Ntp1294
Rp1295
(dp1296
g26
g50
sg28
g1291
sg29
g1295
sg30
Nsg51
g52
sg53
Nsbag0
(g22
g2
Ntp1297
Rp1298
(dp1299
g26
g45
sg28
g1291
sg29
g1298
sg30
(lp1300
g0
(g22
g2
Ntp1301
Rp1302
(dp1303
g26
g121
sg28
g1298
sg29
g1302
sg30
Nsg51
g52
sg53
Nsbag0
(g22
g2
Ntp1304
Rp1305
(dp1306
g26
g45
sg28
g1298
sg29
g1305
sg30
(lp1307
g0
(g22
g2
Ntp1308
Rp1309
(dp1310
g26
g121
sg28
g1305
sg29
g1309
sg30
Nsg51
g52
sg53
Nsbag0
(g22
g2
Ntp1311
Rp1312
(dp1313
g26
g45
sg28
g1305
sg29
g1312
sg30
(lp1314
g0
(g22
g2
Ntp1315
Rp1316
(dp1317
g26
g108
sg28
g1312
sg29
g0
(g22
g2
Ntp1318
Rp1319
g1317
bsg30
Nsg51
g52
sg53
Nsbag0
(g22
g2
Ntp1320
Rp1321
(dp1322
g26
g83
sg28
g1312
sg29
g1321
sg30
(lp1323
g0
(g22
g2
Ntp1324
Rp1325
(dp1326
g26
g108
sg28
g1321
sg29
g1325
sg30
Nsg51
g52
sg53
Nsbasg51
g88
sg53
Nsbasg51
g88
sg53
Nsbasg51
g88
sg53
Nsbasg51
g88
sg53
Nsbasg51
g88
sg53
Nsbasg51
g89
sg53
Nsbasg51
g90
sg53
Nsbasg51
g91
sg53
Nsbsg92
F-1708.2600533518942
sg93
g94
sg172
Nsg29
g174
sg61
Nsg195
g196
((dp1327
g50
I104
sg121
I209
sg108
I199
stp1328
Rp1329
sg200
F-14.857323897588989
sg201
F1.0
sg202
g203
sg206
Nsg204
g205
sg207
I50
sbsbag0
(g8
g2
Ntp1330
Rp1331
(dp1332
g12
F-1720.227005491587
sg13
g0
(g14
g2
Ntp1333
Rp1334
(dp1335
g18
F-1720.227005491587
sg19
Nsg20
F1.0
sg21
g0
(g22
g2
Ntp1336
Rp1337
(dp1338
g26
g27
sg28
Nsg29
g1337
sg30
(lp1339
g0
(g22
g2
Ntp1340
Rp1341
(dp1342
g26
g35
sg28
g1337
sg29
g1341
sg30
(lp1343
g0
(g22
g2
Ntp1344
Rp1345
(dp1346
g26
g40
sg28
g1341
sg29
g1345
sg30
(lp1347
g0
(g22
g2
Ntp1348
Rp1349
(dp1350
g26
g45
sg28
g1345
sg29
g1349
sg30
(lp1351
g0
(g22
g2
Ntp1352
Rp1353
(dp1354
g26
g61
sg28
g1349
sg29
g1353
sg30
Nsg51
g52
sg53
Nsbag0
(g22
g2
Ntp1355
Rp1356
(dp1357
g26
g45
sg28
g1349
sg29
g0
(g22
g2
Ntp1358
Rp1359
g1357
bsg30
(lp1360
g0
(g22
g2
Ntp1361
Rp1362
(dp1363
g26
g61
sg28
g1356
sg29
g1362
sg30
Nsg51
g52
sg53
Nsbag0
(g22
g2
Ntp1364
Rp1365
(dp1366
g26
g45
sg28
g1356
sg29
g1365
sg30
(lp1367
g0
(g22
g2
Ntp1368
Rp1369
(dp1370
g26
g108
sg28
g1365
sg29
g1369
sg30
Nsg51
g52
sg53
Nsbag0
(g22
g2
Ntp1371
Rp1372
(dp1373
g26
g83
sg28
g1365
sg29
g1372
sg30
(lp1374
g0
(g22
g2
Ntp1375
Rp1376
(dp1377
g26
g61
sg28
g1372
sg29
g1376
sg30
Nsg51
g52
sg53
Nsbasg51
g88
sg53
Nsbasg51
g88
sg53
Nsbasg51
g88
sg53
Nsbasg51
g88
sg53
Nsbasg51
g89
sg53
Nsbasg51
g90
sg53
Nsbasg51
g91
sg53
Nsbsg92
F-1708.2600533518942
sg93
g94
sg172
Nsg29
g174
sg61
Nsg195
g196
((dp1378
g108
I136
sg61
I376
stp1379
Rp1380
sg200
F-11.966952139692824
sg201
F1.0
sg202
g203
sg206
Nsg204
g205
sg207
I50
sbsbag0
(g8
g2
Ntp1381
Rp1382
(dp1383
g12
F-1720.227005491587
sg13
g0
(g14
g2
Ntp1384
Rp1385
(dp1386
g18
F-1720.227005491587
sg19
Nsg20
F1.0
sg21
g0
(g22
g2
Ntp1387
Rp1388
(dp1389
g26
g27
sg28
Nsg29
g1388
sg30
(lp1390
g0
(g22
g2
Ntp1391
Rp1392
(dp1393
g26
g35
sg28
g1388
sg29
g1392
sg30
(lp1394
g0
(g22
g2
Ntp1395
Rp1396
(dp1397
g26
g40
sg28
g1392
sg29
g1396
sg30
(lp1398
g0
(g22
g2
Ntp1399
Rp1400
(dp1401
g26
g45
sg28
g1396
sg29
g0
(g22
g2
Ntp1402
Rp1403
g1401
bsg30
(lp1404
g0
(g22
g2
Ntp1405
Rp1406
(dp1407
g26
g108
sg28
g1400
sg29
g1406
sg30
Nsg51
g52
sg53
Nsbag0
(g22
g2
Ntp1408
Rp1409
(dp1410
g26
g45
sg28
g1400
sg29
g1409
sg30
(lp1411
g0
(g22
g2
Ntp1412
Rp1413
(dp1414
g26
g108
sg28
g1409
sg29
g1413
sg30
Nsg51
g52
sg53
Nsbag0
(g22
g2
Ntp1415
Rp1416
(dp1417
g26
g45
sg28
g1409
sg29
g1416
sg30
(lp1418
g0
(g22
g2
Ntp1419
Rp1420
(dp1421
g26
g135
sg28
g1416
sg29
g1420
sg30
Nsg51
g52
sg53
Nsbag0
(g22
g2
Ntp1422
Rp1423
(dp1424
g26
g83
sg28
g1416
sg29
g1423
sg30
(lp1425
g0
(g22
g2
Ntp1426
Rp1427
(dp1428
g26
g61
sg28
g1423
sg29
g1427
sg30
Nsg51
g52
sg53
Nsbasg51
g88
sg53
Nsbasg51
g88
sg53
Nsbasg51
g88
sg53
Nsbasg51
g88
sg53
Nsbasg51
g89
sg53
Nsbasg51
g90
sg53
Nsbasg51
g91
sg53
Nsbsg92
F-1708.2600533518942
sg93
g94
sg172
Nsg29
g174
sg61
Nsg195
g196
((dp1429
g135
I124
sg108
I262
sg61
I126
stp1430
Rp1431
sg200
F-11.966952139692824
sg201
F1.0
sg202
g203
sg206
Nsg204
g205
sg207
I50
sbsbag0
(g8
g2
Ntp1432
Rp1433
(dp1434
g12
F-1714.4462619757946
sg13
g0
(g14
g2
Ntp1435
Rp1436
(dp1437
g18
F-1714.4462619757946
sg19
Nsg20
F1.0
sg21
g0
(g22
g2
Ntp1438
Rp1439
(dp1440
g26
g27
sg28
Nsg29
g1439
sg30
(lp1441
g0
(g22
g2
Ntp1442
Rp1443
(dp1444
g26
g35
sg28
g1439
sg29
g1443
sg30
(lp1445
g0
(g22
g2
Ntp1446
Rp1447
(dp1448
g26
g40
sg28
g1443
sg29
g1447
sg30
(lp1449
g0
(g22
g2
Ntp1450
Rp1451
(dp1452
g26
g45
sg28
g1447
sg29
g0
(g22
g2
Ntp1453
Rp1454
g1452
bsg30
(lp1455
g0
(g22
g2
Ntp1456
Rp1457
(dp1458
g26
g61
sg28
g1451
sg29
g1457
sg30
Nsg51
g52
sg53
Nsbag0
(g22
g2
Ntp1459
Rp1460
(dp1461
g26
g83
sg28
g1451
sg29
g1460
sg30
(lp1462
g0
(g22
g2
Ntp1463
Rp1464
(dp1465
g26
g61
sg28
g1460
sg29
g1464
sg30
Nsg51
g52
sg53
Nsbasg51
g88
sg53
Nsbasg51
g88
sg53
Nsbasg51
g89
sg53
Nsbasg51
g90
sg53
Nsbasg51
g91
sg53
Nsbsg92
F-1708.2600533518942
sg93
g94
sg172
Nsg29
g174
sg61
Nsg195
g196
((dp1466
g61
I512
stp1467
Rp1468
sg200
F-6.1862086239004945
sg201
F1.0
sg202
g203
sg206
Nsg204
g205
sg207
I50
sbsbag0
(g8
g2
Ntp1469
Rp1470
(dp1471
g12
F-1720.227005491587
sg13
g0
(g14
g2
Ntp1472
Rp1473
(dp1474
g18
F-1720.227005491587
sg19
Nsg20
F1.0
sg21
g0
(g22
g2
Ntp1475
Rp1476
(dp1477
g26
g27
sg28
Nsg29
g1476
sg30
(lp1478
g0
(g22
g2
Ntp1479
Rp1480
(dp1481
g26
g35
sg28
g1476
sg29
g1480
sg30
(lp1482
g0
(g22
g2
Ntp1483
Rp1484
(dp1485
g26
g40
sg28
g1480
sg29
g1484
sg30
(lp1486
g0
(g22
g2
Ntp1487
Rp1488
(dp1489
g26
g45
sg28
g1484
sg29
g0
(g22
g2
Ntp1490
Rp1491
g1489
bsg30
(lp1492
g0
(g22
g2
Ntp1493
Rp1494
(dp1495
g26
g71
sg28
g1488
sg29
g1494
sg30
Nsg51
g52
sg53
Nsbag0
(g22
g2
Ntp1496
Rp1497
(dp1498
g26
g45
sg28
g1488
sg29
g1497
sg30
(lp1499
g0
(g22
g2
Ntp1500
Rp1501
(dp1502
g26
g50
sg28
g1497
sg29
g1501
sg30
Nsg51
g52
sg53
Nsbag0
(g22
g2
Ntp1503
Rp1504
(dp1505
g26
g45
sg28
g1497
sg29
g1504
sg30
(lp1506
g0
(g22
g2
Ntp1507
Rp1508
(dp1509
g26
g79
sg28
g1504
sg29
g1508
sg30
Nsg51
g52
sg53
Nsbag0
(g22
g2
Ntp1510
Rp1511
(dp1512
g26
g83
sg28
g1504
sg29
g1511
sg30
(lp1513
g0
(g22
g2
Ntp1514
Rp1515
(dp1516
g26
g131
sg28
g1511
sg29
g1515
sg30
Nsg51
g52
sg53
Nsbasg51
g88
sg53
Nsbasg51
g88
sg53
Nsbasg51
g88
sg53
Nsbasg51
g88
sg53
Nsbasg51
g89
sg53
Nsbasg51
g90
sg53
Nsbasg51
g91
sg53
Nsbsg92
F-1708.2600533518942
sg93
g94
sg172
Nsg29
g174
sg61
Nsg195
g196
((dp1517
g50
I122
sg71
I125
sg131
I122
sg79
I143
stp1518
Rp1519
sg200
F-11.966952139692824
sg201
F1.0
sg202
g203
sg206
Nsg204
g205
sg207
I50
sbsbag0
(g8
g2
Ntp1520
Rp1521
(dp1522
g12
F-1717.3366337336909
sg13
g0
(g14
g2
Ntp1523
Rp1524
(dp1525
g18
F-1717.3366337336909
sg19
Nsg20
F1.0
sg21
g0
(g22
g2
Ntp1526
Rp1527
(dp1528
g26
g27
sg28
Nsg29
g1527
sg30
(lp1529
g0
(g22
g2
Ntp1530
Rp1531
(dp1532
g26
g35
sg28
g1527
sg29
g1531
sg30
(lp1533
g0
(g22
g2
Ntp1534
Rp1535
(dp1536
g26
g40
sg28
g1531
sg29
g1535
sg30
(lp1537
g0
(g22
g2
Ntp1538
Rp1539
(dp1540
g26
g45
sg28
g1535
sg29
g0
(g22
g2
Ntp1541
Rp1542
g1540
bsg30
(lp1543
g0
(g22
g2
Ntp1544
Rp1545
(dp1546
g26
g79
sg28
g1539
sg29
g1545
sg30
Nsg51
g52
sg53
Nsbag0
(g22
g2
Ntp1547
Rp1548
(dp1549
g26
g45
sg28
g1539
sg29
g1548
sg30
(lp1550
g0
(g22
g2
Ntp1551
Rp1552
(dp1553
g26
g135
sg28
g1548
sg29
g1552
sg30
Nsg51
g52
sg53
Nsbag0
(g22
g2
Ntp1554
Rp1555
(dp1556
g26
g83
sg28
g1548
sg29
g1555
sg30
(lp1557
g0
(g22
g2
Ntp1558
Rp1559
(dp1560
g26
g131
sg28
g1555
sg29
g1559
sg30
Nsg51
g52
sg53
Nsbasg51
g88
sg53
Nsbasg51
g88
sg53
Nsbasg51
g88
sg53
Nsbasg51
g89
sg53
Nsbasg51
g90
sg53
Nsbasg51
g91
sg53
Nsbsg92
F-1708.2600533518942
sg93
g94
sg172
Nsg29
g174
sg61
Nsg195
g196
((dp1561
g135
I178
sg131
I182
sg79
I152
stp1562
Rp1563
sg200
F-9.076580381796658
sg201
F1.0
sg202
g203
sg206
Nsg204
g205
sg207
I50
sbsbag0
(g8
g2
Ntp1564
Rp1565
(dp1566
g12
F-1717.3366337336909
sg13
g0
(g14
g2
Ntp1567
Rp1568
(dp1569
g18
F-1717.3366337336909
sg19
Nsg20
F1.0
sg21
g0
(g22
g2
Ntp1570
Rp1571
(dp1572
g26
g27
sg28
Nsg29
g1571
sg30
(lp1573
g0
(g22
g2
Ntp1574
Rp1575
(dp1576
g26
g35
sg28
g1571
sg29
g1575
sg30
(lp1577
g0
(g22
g2
Ntp1578
Rp1579
(dp1580
g26
g40
sg28
g1575
sg29
g1579
sg30
(lp1581
g0
(g22
g2
Ntp1582
Rp1583
(dp1584
g26
g45
sg28
g1579
sg29
g1583
sg30
(lp1585
g0
(g22
g2
Ntp1586
Rp1587
(dp1588
g26
g108
sg28
g1583
sg29
g1587
sg30
Nsg51
g52
sg53
Nsbag0
(g22
g2
Ntp1589
Rp1590
(dp1591
g26
g45
sg28
g1583
sg29
g0
(g22
g2
Ntp1592
Rp1593
g1591
bsg30
(lp1594
g0
(g22
g2
Ntp1595
Rp1596
(dp1597
g26
g135
sg28
g1590
sg29
g1596
sg30
Nsg51
g52
sg53
Nsbag0
(g22
g2
Ntp1598
Rp1599
(dp1600
g26
g83
sg28
g1590
sg29
g1599
sg30
(lp1601
g0
(g22
g2
Ntp1602
Rp1603
(dp1604
g26
g61
sg28
g1599
sg29
g1603
sg30
Nsg51
g52
sg53
Nsbasg51
g88
sg53
Nsbasg51
g88
sg53
Nsbasg51
g88
sg53
Nsbasg51
g89
sg53
Nsbasg51
g90
sg53
Nsbasg51
g91
sg53
Nsbsg92
F-1708.2600533518942
sg93
g94
sg172
Nsg29
g174
sg61
Nsg195
g196
((dp1605
g135
I165
sg108
I153
sg61
I194
stp1606
Rp1607
sg200
F-9.076580381796658
sg201
F1.0
sg202
g203
sg206
Nsg204
g205
sg207
I50
sbsbag0
(g8
g2
Ntp1608
Rp1609
(dp1610
g12
F-1717.3366337336909
sg13
g0
(g14
g2
Ntp1611
Rp1612
(dp1613
g18
F-1717.3366337336909
sg19
Nsg20
F1.0
sg21
g0
(g22
g2
Ntp1614
Rp1615
(dp1616
g26
g27
sg28
Nsg29
g1615
sg30
(lp1617
g0
(g22
g2
Ntp1618
Rp1619
(dp1620
g26
g35
sg28
g1615
sg29
g1619
sg30
(lp1621
g0
(g22
g2
Ntp1622
Rp1623
(dp1624
g26
g40
sg28
g1619
sg29
g0
(g22
g2
Ntp1625
Rp1626
g1624
bsg30
(lp1627
g0
(g22
g2
Ntp1628
Rp1629
(dp1630
g26
g45
sg28
g1623
sg29
g1629
sg30
(lp1631
g0
(g22
g2
Ntp1632
Rp1633
(dp1634
g26
g50
sg28
g1629
sg29
g1633
sg30
Nsg51
g52
sg53
Nsbag0
(g22
g2
Ntp1635
Rp1636
(dp1637
g26
g45
sg28
g1629
sg29
g1636
sg30
(lp1638
g0
(g22
g2
Ntp1639
Rp1640
(dp1641
g26
g50
sg28
g1636
sg29
g1640
sg30
Nsg51
g52
sg53
Nsbag0
(g22
g2
Ntp1642
Rp1643
(dp1644
g26
g83
sg28
g1636
sg29
g1643
sg30
(lp1645
g0
(g22
g2
Ntp1646
Rp1647
(dp1648
g26
g71
sg28
g1643
sg29
g1647
sg30
Nsg51
g52
sg53
Nsbasg51
g88
sg53
Nsbasg51
g88
sg53
Nsbasg51
g88
sg53
Nsbasg51
g89
sg53
Nsbasg51
g90
sg53
Nsbasg51
g91
sg53
Nsbsg92
F-1708.2600533518942
sg93
g94
sg172
Nsg29
g174
sg61
Nsg195
g196
((dp1649
g50
I349
sg71
I163
stp1650
Rp1651
sg200
F-9.076580381796658
sg201
F1.0
sg202
g203
sg206
Nsg204
g205
sg207
I50
sbsbag0
(g8
g2
Ntp1652
Rp1653
(dp1654
g12
F-1718.840711130467
sg13
g0
(g14
g2
Ntp1655
Rp1656
(dp1657
g18
F-1718.840711130467
sg19
Nsg20
F1.0
sg21
g0
(g22
g2
Ntp1658
Rp1659
(dp1660
g26
g27
sg28
Nsg29
g1659
sg30
(lp1661
g0
(g22
g2
Ntp1662
Rp1663
(dp1664
g26
g167
sg28
g1659
sg29
g1663
sg30
(lp1665
g0
(g22
g2
Ntp1666
Rp1667
(dp1668
g26
g35
sg28
g1663
sg29
g1667
sg30
(lp1669
g0
(g22
g2
Ntp1670
Rp1671
(dp1672
g26
g40
sg28
g1667
sg29
g1671
sg30
(lp1673
g0
(g22
g2
Ntp1674
Rp1675
(dp1676
g26
g83
sg28
g1671
sg29
g0
(g22
g2
Ntp1677
Rp1678
g1676
bsg30
(lp1679
g0
(g22
g2
Ntp1680
Rp1681
(dp1682
g26
g79
sg28
g1675
sg29
g1681
sg30
Nsg51
g52
sg53
Nsbasg51
g88
sg53
Nsbasg51
g89
sg53
Nsbasg51
g90
sg53
Nsbag0
(g22
g2
Ntp1683
Rp1684
(dp1685
g26
g35
sg28
g1663
sg29
g1684
sg30
(lp1686
g0
(g22
g2
Ntp1687
Rp1688
(dp1689
g26
g40
sg28
g1684
sg29
g1688
sg30
(lp1690
g0
(g22
g2
Ntp1691
Rp1692
(dp1693
g26
g45
sg28
g1688
sg29
g1692
sg30
(lp1694
g0
(g22
g2
Ntp1695
Rp1696
(dp1697
g26
g50
sg28
g1692
sg29
g1696
sg30
Nsg51
g52
sg53
Nsbag0
(g22
g2
Ntp1698
Rp1699
(dp1700
g26
g83
sg28
g1692
sg29
g1699
sg30
(lp1701
g0
(g22
g2
Ntp1702
Rp1703
(dp1704
g26
g135
sg28
g1699
sg29
g1703
sg30
Nsg51
g52
sg53
Nsbasg51
g88
sg53
Nsbasg51
g88
sg53
Nsbasg51
g89
sg53
Nsbasg51
g90
sg53
Nsbasg51
g90
sg53
Nsbasg51
g91
sg53
Nsbsg92
F-1708.2600533518942
sg93
g94
sg172
Nsg29
g174
sg61
Nsg195
g196
((dp1705
S'N h'
p1706
I261
sS'N k'
p1707
I251
stp1708
Rp1709
sg200
F-10.580657778572933
sg201
F1.0
sg202
g203
sg206
Nsg204
g205
sg207
I50
sbsbag0
(g8
g2
Ntp1710
Rp1711
(dp1712
g12
F-1717.3366337336909
sg13
g0
(g14
g2
Ntp1713
Rp1714
(dp1715
g18
F-1717.3366337336909
sg19
Nsg20
F1.0
sg21
g0
(g22
g2
Ntp1716
Rp1717
(dp1718
g26
g27
sg28
Nsg29
g1717
sg30
(lp1719
g0
(g22
g2
Ntp1720
Rp1721
(dp1722
g26
g35
sg28
g1717
sg29
g1721
sg30
(lp1723
g0
(g22
g2
Ntp1724
Rp1725
(dp1726
g26
g40
sg28
g1721
sg29
g1725
sg30
(lp1727
g0
(g22
g2
Ntp1728
Rp1729
(dp1730
g26
g45
sg28
g1725
sg29
g1729
sg30
(lp1731
g0
(g22
g2
Ntp1732
Rp1733
(dp1734
g26
g135
sg28
g1729
sg29
g1733
sg30
Nsg51
g52
sg53
Nsbag0
(g22
g2
Ntp1735
Rp1736
(dp1737
g26
g45
sg28
g1729
sg29
g0
(g22
g2
Ntp1738
Rp1739
g1737
bsg30
(lp1740
g0
(g22
g2
Ntp1741
Rp1742
(dp1743
g26
g108
sg28
g1736
sg29
g1742
sg30
Nsg51
g52
sg53
Nsbag0
(g22
g2
Ntp1744
Rp1745
(dp1746
g26
g83
sg28
g1736
sg29
g1745
sg30
(lp1747
g0
(g22
g2
Ntp1748
Rp1749
(dp1750
g26
g108
sg28
g1745
sg29
g1749
sg30
Nsg51
g52
sg53
Nsbasg51
g88
sg53
Nsbasg51
g88
sg53
Nsbasg51
g88
sg53
Nsbasg51
g89
sg53
Nsbasg51
g90
sg53
Nsbasg51
g91
sg53
Nsbsg92
F-1708.2600533518942
sg93
g94
sg172
Nsg29
g174
sg61
Nsg195
g196
((dp1751
g135
I163
sg108
I349
stp1752
Rp1753
sg200
F-9.076580381796658
sg201
F1.0
sg202
g203
sg206
Nsg204
g205
sg207
I50
sbsbag0
(g8
g2
Ntp1754
Rp1755
(dp1756
g12
F-1717.3366337336909
sg13
g0
(g14
g2
Ntp1757
Rp1758
(dp1759
g18
F-1717.3366337336909
sg19
Nsg20
F1.0
sg21
g0
(g22
g2
Ntp1760
Rp1761
(dp1762
g26
g27
sg28
Nsg29
g0
(g22
g2
Ntp1763
Rp1764
g1762
bsg30
(lp1765
g0
(g22
g2
Ntp1766
Rp1767
(dp1768
g26
g35
sg28
g1761
sg29
g1767
sg30
(lp1769
g0
(g22
g2
Ntp1770
Rp1771
(dp1772
g26
g40
sg28
g1767
sg29
g1771
sg30
(lp1773
g0
(g22
g2
Ntp1774
Rp1775
(dp1776
g26
g45
sg28
g1771
sg29
g1775
sg30
(lp1777
g0
(g22
g2
Ntp1778
Rp1779
(dp1780
g26
g131
sg28
g1775
sg29
g1779
sg30
Nsg51
g52
sg53
Nsbag0
(g22
g2
Ntp1781
Rp1782
(dp1783
g26
g45
sg28
g1775
sg29
g1782
sg30
(lp1784
g0
(g22
g2
Ntp1785
Rp1786
(dp1787
g26
g114
sg28
g1782
sg29
g1786
sg30
Nsg51
g52
sg53
Nsbag0
(g22
g2
Ntp1788
Rp1789
(dp1790
g26
g83
sg28
g1782
sg29
g1789
sg30
(lp1791
g0
(g22
g2
Ntp1792
Rp1793
(dp1794
g26
g71
sg28
g1789
sg29
g1793
sg30
Nsg51
g52
sg53
Nsbasg51
g88
sg53
Nsbasg51
g88
sg53
Nsbasg51
g88
sg53
Nsbasg51
g89
sg53
Nsbasg51
g90
sg53
Nsbasg51
g91
sg53
Nsbsg92
F-1708.2600533518942
sg93
g94
sg172
Nsg29
g174
sg61
Nsg195
g196
((dp1795
g131
I185
sg114
I165
sg71
I162
stp1796
Rp1797
sg200
F-9.076580381796658
sg201
F1.0
sg202
g203
sg206
Nsg204
g205
sg207
I50
sbsbag0
(g8
g2
Ntp1798
Rp1799
(dp1800
g12
F-1714.4462619757946
sg13
g0
(g14
g2
Ntp1801
Rp1802
(dp1803
g18
F-1714.4462619757946
sg19
Nsg20
F1.0
sg21
g0
(g22
g2
Ntp1804
Rp1805
(dp1806
g26
g27
sg28
Nsg29
g1805
sg30
(lp1807
g0
(g22
g2
Ntp1808
Rp1809
(dp1810
g26
g35
sg28
g1805
sg29
g1809
sg30
(lp1811
g0
(g22
g2
Ntp1812
Rp1813
(dp1814
g26
g40
sg28
g1809
sg29
g1813
sg30
(lp1815
g0
(g22
g2
Ntp1816
Rp1817
(dp1818
g26
g45
sg28
g1813
sg29
g1817
sg30
(lp1819
g0
(g22
g2
Ntp1820
Rp1821
(dp1822
g26
g71
sg28
g1817
sg29
g0
(g22
g2
Ntp1823
Rp1824
g1822
bsg30
Nsg51
g52
sg53
Nsbag0
(g22
g2
Ntp1825
Rp1826
(dp1827
g26
g83
sg28
g1817
sg29
g1826
sg30
(lp1828
g0
(g22
g2
Ntp1829
Rp1830
(dp1831
g26
g71
sg28
g1826
sg29
g1830
sg30
Nsg51
g52
sg53
Nsbasg51
g88
sg53
Nsbasg51
g88
sg53
Nsbasg51
g89
sg53
Nsbasg51
g90
sg53
Nsbasg51
g91
sg53
Nsbsg92
F-1708.2600533518942
sg93
g94
sg172
Nsg29
g174
sg61
Nsg195
g196
((dp1832
g71
I512
stp1833
Rp1834
sg200
F-6.1862086239004945
sg201
F1.0
sg202
g203
sg206
Nsg204
g205
sg207
I50
sbsbag0
(g8
g2
Ntp1835
Rp1836
(dp1837
g12
F-1715.9503393725709
sg13
g0
(g14
g2
Ntp1838
Rp1839
(dp1840
g18
F-1715.9503393725709
sg19
Nsg20
F1.0
sg21
g0
(g22
g2
Ntp1841
Rp1842
(dp1843
g26
g27
sg28
Nsg29
g1842
sg30
(lp1844
g0
(g22
g2
Ntp1845
Rp1846
(dp1847
g26
g167
sg28
g1842
sg29
g1846
sg30
(lp1848
g0
(g22
g2
Ntp1849
Rp1850
(dp1851
g26
g35
sg28
g1846
sg29
g1850
sg30
(lp1852
g0
(g22
g2
Ntp1853
Rp1854
(dp1855
g26
g40
sg28
g1850
sg29
g1854
sg30
(lp1856
g0
(g22
g2
Ntp1857
Rp1858
(dp1859
g26
g83
sg28
g1854
sg29
g1858
sg30
(lp1860
g0
(g22
g2
Ntp1861
Rp1862
(dp1863
g26
g108
sg28
g1858
sg29
g1862
sg30
Nsg51
g52
sg53
Nsbasg51
g88
sg53
Nsbasg51
g89
sg53
Nsbasg51
g90
sg53
Nsbag0
(g22
g2
Ntp1864
Rp1865
(dp1866
g26
g35
sg28
g1846
sg29
g1865
sg30
(lp1867
g0
(g22
g2
Ntp1868
Rp1869
(dp1870
g26
g40
sg28
g1865
sg29
g1869
sg30
(lp1871
g0
(g22
g2
Ntp1872
Rp1873
(dp1874
g26
g83
sg28
g1869
sg29
g1873
sg30
(lp1875
g0
(g22
g2
Ntp1876
Rp1877
(dp1878
g26
g135
sg28
g1873
sg29
g0
(g22
g2
Ntp1879
Rp1880
g1878
bsg30
Nsg51
g52
sg53
Nsbasg51
g88
sg53
Nsbasg51
g89
sg53
Nsbasg51
g90
sg53
Nsbasg51
g90
sg53
Nsbasg51
g91
sg53
Nsbsg92
F-1708.2600533518942
sg93
g94
sg172
Nsg29
g174
sg61
Nsg195
g196
((dp1881
S'g h'
p1882
I512
stp1883
Rp1884
sg200
F-7.690286020676767
sg201
F1.0
sg202
g203
sg206
Nsg204
g205
sg207
I50
sbsbag0
(g8
g2
Ntp1885
Rp1886
(dp1887
g12
F-1714.4462619757946
sg13
g0
(g14
g2
Ntp1888
Rp1889
(dp1890
g18
F-1714.4462619757946
sg19
Nsg20
F1.0
sg21
g0
(g22
g2
Ntp1891
Rp1892
(dp1893
g26
g27
sg28
Nsg29
g1892
sg30
(lp1894
g0
(g22
g2
Ntp1895
Rp1896
(dp1897
g26
g35
sg28
g1892
sg29
g1896
sg30
(lp1898
g0
(g22
g2
Ntp1899
Rp1900
(dp1901
g26
g40
sg28
g1896
sg29
g1900
sg30
(lp1902
g0
(g22
g2
Ntp1903
Rp1904
(dp1905
g26
g45
sg28
g1900
sg29
g1904
sg30
(lp1906
g0
(g22
g2
Ntp1907
Rp1908
(dp1909
g26
g50
sg28
g1904
sg29
g0
(g22
g2
Ntp1910
Rp1911
g1909
bsg30
Nsg51
g52
sg53
Nsbag0
(g22
g2
Ntp1912
Rp1913
(dp1914
g26
g83
sg28
g1904
sg29
g1913
sg30
(lp1915
g0
(g22
g2
Ntp1916
Rp1917
(dp1918
g26
g108
sg28
g1913
sg29
g1917
sg30
Nsg51
g52
sg53
Nsbasg51
g88
sg53
Nsbasg51
g88
sg53
Nsbasg51
g89
sg53
Nsbasg51
g90
sg53
Nsbasg51
g91
sg53
Nsbsg92
F-1708.2600533518942
sg93
g94
sg172
Nsg29
g174
sg61
Nsg195
g196
((dp1919
g50
I287
sg108
I225
stp1920
Rp1921
sg200
F-6.1862086239004945
sg201
F1.0
sg202
g203
sg206
Nsg204
g205
sg207
I50
sbsbag0
(g8
g2
Ntp1922
Rp1923
(dp1924
g12
F-1715.9503393725709
sg13
g0
(g14
g2
Ntp1925
Rp1926
(dp1927
g18
F-1715.9503393725709
sg19
Nsg20
F1.0
sg21
g0
(g22
g2
Ntp1928
Rp1929
(dp1930
g26
g27
sg28
Nsg29
g1929
sg30
(lp1931
g0
(g22
g2
Ntp1932
Rp1933
(dp1934
g26
g167
sg28
g1929
sg29
g1933
sg30
(lp1935
g0
(g22
g2
Ntp1936
Rp1937
(dp1938
g26
g35
sg28
g1933
sg29
g1937
sg30
(lp1939
g0
(g22
g2
Ntp1940
Rp1941
(dp1942
g26
g40
sg28
g1937
sg29
g1941
sg30
(lp1943
g0
(g22
g2
Ntp1944
Rp1945
(dp1946
g26
g83
sg28
g1941
sg29
g1945
sg30
(lp1947
g0
(g22
g2
Ntp1948
Rp1949
(dp1950
g26
g108
sg28
g1945
sg29
g1949
sg30
Nsg51
g52
sg53
Nsbasg51
g88
sg53
Nsbasg51
g89
sg53
Nsbasg51
g90
sg53
Nsbag0
(g22
g2
Ntp1951
Rp1952
(dp1953
g26
g35
sg28
g1933
sg29
g1952
sg30
(lp1954
g0
(g22
g2
Ntp1955
Rp1956
(dp1957
g26
g40
sg28
g1952
sg29
g1956
sg30
(lp1958
g0
(g22
g2
Ntp1959
Rp1960
(dp1961
g26
g83
sg28
g1956
sg29
g0
(g22
g2
Ntp1962
Rp1963
g1961
bsg30
(lp1964
g0
(g22
g2
Ntp1965
Rp1966
(dp1967
g26
g121
sg28
g1960
sg29
g1966
sg30
Nsg51
g52
sg53
Nsbasg51
g88
sg53
Nsbasg51
g89
sg53
Nsbasg51
g90
sg53
Nsbasg51
g90
sg53
Nsbasg51
g91
sg53
Nsbsg92
F-1708.2600533518942
sg93
g94
sg172
Nsg29
g174
sg61
Nsg195
g196
((dp1968
S'g s'
p1969
I512
stp1970
Rp1971
sg200
F-7.690286020676767
sg201
F1.0
sg202
g203
sg206
Nsg204
g205
sg207
I50
sbsbag0
(g8
g2
Ntp1972
Rp1973
(dp1974
g12
F-1717.3366337336909
sg13
g0
(g14
g2
Ntp1975
Rp1976
(dp1977
g18
F-1717.3366337336909
sg19
Nsg20
F1.0
sg21
g0
(g22
g2
Ntp1978
Rp1979
(dp1980
g26
g27
sg28
Nsg29
g1979
sg30
(lp1981
g0
(g22
g2
Ntp1982
Rp1983
(dp1984
g26
g35
sg28
g1979
sg29
g1983
sg30
(lp1985
g0
(g22
g2
Ntp1986
Rp1987
(dp1988
g26
g40
sg28
g1983
sg29
g1987
sg30
(lp1989
g0
(g22
g2
Ntp1990
Rp1991
(dp1992
g26
g45
sg28
g1987
sg29
g0
(g22
g2
Ntp1993
Rp1994
g1992
bsg30
(lp1995
g0
(g22
g2
Ntp1996
Rp1997
(dp1998
g26
g121
sg28
g1991
sg29
g1997
sg30
Nsg51
g52
sg53
Nsbag0
(g22
g2
Ntp1999
Rp2000
(dp2001
g26
g45
sg28
g1991
sg29
g2000
sg30
(lp2002
g0
(g22
g2
Ntp2003
Rp2004
(dp2005
g26
g135
sg28
g2000
sg29
g2004
sg30
Nsg51
g52
sg53
Nsbag0
(g22
g2
Ntp2006
Rp2007
(dp2008
g26
g83
sg28
g2000
sg29
g2007
sg30
(lp2009
g0
(g22
g2
Ntp2010
Rp2011
(dp2012
g26
g114
sg28
g2007
sg29
g2011
sg30
Nsg51
g52
sg53
Nsbasg51
g88
sg53
Nsbasg51
g88
sg53
Nsbasg51
g88
sg53
Nsbasg51
g89
sg53
Nsbasg51
g90
sg53
Nsbasg51
g91
sg53
Nsbsg92
F-1708.2600533518942
sg93
g94
sg172
Nsg29
g174
sg61
Nsg195
g196
((dp2013
g135
I159
sg121
I162
sg114
I191
stp2014
Rp2015
sg200
F-9.076580381796658
sg201
F1.0
sg202
g203
sg206
Nsg204
g205
sg207
I50
sbsbag0
(g8
g2
Ntp2016
Rp2017
(dp2018
g12
F-1717.3366337336909
sg13
g0
(g14
g2
Ntp2019
Rp2020
(dp2021
g18
F-1717.3366337336909
sg19
Nsg20
F1.0
sg21
g0
(g22
g2
Ntp2022
Rp2023
(dp2024
g26
g27
sg28
Nsg29
g2023
sg30
(lp2025
g0
(g22
g2
Ntp2026
Rp2027
(dp2028
g26
g35
sg28
g2023
sg29
g2027
sg30
(lp2029
g0
(g22
g2
Ntp2030
Rp2031
(dp2032
g26
g40
sg28
g2027
sg29
g2031
sg30
(lp2033
g0
(g22
g2
Ntp2034
Rp2035
(dp2036
g26
g45
sg28
g2031
sg29
g0
(g22
g2
Ntp2037
Rp2038
g2036
bsg30
(lp2039
g0
(g22
g2
Ntp2040
Rp2041
(dp2042
g26
g79
sg28
g2035
sg29
g2041
sg30
Nsg51
g52
sg53
Nsbag0
(g22
g2
Ntp2043
Rp2044
(dp2045
g26
g45
sg28
g2035
sg29
g2044
sg30
(lp2046
g0
(g22
g2
Ntp2047
Rp2048
(dp2049
g26
g135
sg28
g2044
sg29
g2048
sg30
Nsg51
g52
sg53
Nsbag0
(g22
g2
Ntp2050
Rp2051
(dp2052
g26
g83
sg28
g2044
sg29
g2051
sg30
(lp2053
g0
(g22
g2
Ntp2054
Rp2055
(dp2056
g26
g135
sg28
g2051
sg29
g2055
sg30
Nsg51
g52
sg53
Nsbasg51
g88
sg53
Nsbasg51
g88
sg53
Nsbasg51
g88
sg53
Nsbasg51
g89
sg53
Nsbasg51
g90
sg53
Nsbasg51
g91
sg53
Nsbsg92
F-1708.2600533518942
sg93
g94
sg172
Nsg29
g174
sg61
Nsg195
g196
((dp2057
g135
I345
sg79
I167
stp2058
Rp2059
sg200
F-9.076580381796658
sg201
F1.0
sg202
g203
sg206
Nsg204
g205
sg207
I50
sbsbag0
(g8
g2
Ntp2060
Rp2061
(dp2062
g12
F-1717.3366337336909
sg13
g0
(g14
g2
Ntp2063
Rp2064
(dp2065
g18
F-1717.3366337336909
sg19
Nsg20
F1.0
sg21
g0
(g22
g2
Ntp2066
Rp2067
(dp2068
g26
g27
sg28
Nsg29
g2067
sg30
(lp2069
g0
(g22
g2
Ntp2070
Rp2071
(dp2072
g26
g35
sg28
g2067
sg29
g2071
sg30
(lp2073
g0
(g22
g2
Ntp2074
Rp2075
(dp2076
g26
g40
sg28
g2071
sg29
g2075
sg30
(lp2077
g0
(g22
g2
Ntp2078
Rp2079
(dp2080
g26
g45
sg28
g2075
sg29
g2079
sg30
(lp2081
g0
(g22
g2
Ntp2082
Rp2083
(dp2084
g26
g108
sg28
g2079
sg29
g0
(g22
g2
Ntp2085
Rp2086
g2084
bsg30
Nsg51
g52
sg53
Nsbag0
(g22
g2
Ntp2087
Rp2088
(dp2089
g26
g45
sg28
g2079
sg29
g2088
sg30
(lp2090
g0
(g22
g2
Ntp2091
Rp2092
(dp2093
g26
g135
sg28
g2088
sg29
g2092
sg30
Nsg51
g52
sg53
Nsbag0
(g22
g2
Ntp2094
Rp2095
(dp2096
g26
g83
sg28
g2088
sg29
g2095
sg30
(lp2097
g0
(g22
g2
Ntp2098
Rp2099
(dp2100
g26
g114
sg28
g2095
sg29
g2099
sg30
Nsg51
g52
sg53
Nsbasg51
g88
sg53
Nsbasg51
g88
sg53
Nsbasg51
g88
sg53
Nsbasg51
g89
sg53
Nsbasg51
g90
sg53
Nsbasg51
g91
sg53
Nsbsg92
F-1708.2600533518942
sg93
g94
sg172
Nsg29
g174
sg61
Nsg195
g196
((dp2101
g135
I167
sg114
I170
sg108
I175
stp2102
Rp2103
sg200
F-9.076580381796658
sg201
F1.0
sg202
g203
sg206
Nsg204
g205
sg207
I50
sbsbag0
(g8
g2
Ntp2104
Rp2105
(dp2106
g12
F-1714.4462619757946
sg13
g0
(g14
g2
Ntp2107
Rp2108
(dp2109
g18
F-1714.4462619757946
sg19
Nsg20
F1.0
sg21
g0
(g22
g2
Ntp2110
Rp2111
(dp2112
g26
g27
sg28
Nsg29
g2111
sg30
(lp2113
g0
(g22
g2
Ntp2114
Rp2115
(dp2116
g26
g35
sg28
g2111
sg29
g2115
sg30
(lp2117
g0
(g22
g2
Ntp2118
Rp2119
(dp2120
g26
g40
sg28
g2115
sg29
g2119
sg30
(lp2121
g0
(g22
g2
Ntp2122
Rp2123
(dp2124
g26
g45
sg28
g2119
sg29
g2123
sg30
(lp2125
g0
(g22
g2
Ntp2126
Rp2127
(dp2128
g26
g108
sg28
g2123
sg29
g0
(g22
g2
Ntp2129
Rp2130
g2128
bsg30
Nsg51
g52
sg53
Nsbag0
(g22
g2
Ntp2131
Rp2132
(dp2133
g26
g83
sg28
g2123
sg29
g2132
sg30
(lp2134
g0
(g22
g2
Ntp2135
Rp2136
(dp2137
g26
g121
sg28
g2132
sg29
g2136
sg30
Nsg51
g52
sg53
Nsbasg51
g88
sg53
Nsbasg51
g88
sg53
Nsbasg51
g89
sg53
Nsbasg51
g90
sg53
Nsbasg51
g91
sg53
Nsbsg92
F-1708.2600533518942
sg93
g94
sg172
Nsg29
g174
sg61
Nsg195
g196
((dp2138
g121
I241
sg108
I271
stp2139
Rp2140
sg200
F-6.1862086239004945
sg201
F1.0
sg202
g203
sg206
Nsg204
g205
sg207
I50
sbsbag0
(g8
g2
Ntp2141
Rp2142
(dp2143
g12
F-1717.3366337336909
sg13
g0
(g14
g2
Ntp2144
Rp2145
(dp2146
g18
F-1717.3366337336909
sg19
Nsg20
F1.0
sg21
g0
(g22
g2
Ntp2147
Rp2148
(dp2149
g26
g27
sg28
Nsg29
g2148
sg30
(lp2150
g0
(g22
g2
Ntp2151
Rp2152
(dp2153
g26
g35
sg28
g2148
sg29
g0
(g22
g2
Ntp2154
Rp2155
g2153
bsg30
(lp2156
g0
(g22
g2
Ntp2157
Rp2158
(dp2159
g26
g40
sg28
g2152
sg29
g2158
sg30
(lp2160
g0
(g22
g2
Ntp2161
Rp2162
(dp2163
g26
g45
sg28
g2158
sg29
g2162
sg30
(lp2164
g0
(g22
g2
Ntp2165
Rp2166
(dp2167
g26
g79
sg28
g2162
sg29
g2166
sg30
Nsg51
g52
sg53
Nsbag0
(g22
g2
Ntp2168
Rp2169
(dp2170
g26
g45
sg28
g2162
sg29
g2169
sg30
(lp2171
g0
(g22
g2
Ntp2172
Rp2173
(dp2174
g26
g71
sg28
g2169
sg29
g2173
sg30
Nsg51
g52
sg53
Nsbag0
(g22
g2
Ntp2175
Rp2176
(dp2177
g26
g83
sg28
g2169
sg29
g2176
sg30
(lp2178
g0
(g22
g2
Ntp2179
Rp2180
(dp2181
g26
g108
sg28
g2176
sg29
g2180
sg30
Nsg51
g52
sg53
Nsbasg51
g88
sg53
Nsbasg51
g88
sg53
Nsbasg51
g88
sg53
Nsbasg51
g89
sg53
Nsbasg51
g90
sg53
Nsbasg51
g91
sg53
Nsbsg92
F-1708.2600533518942
sg93
g94
sg172
Nsg29
g174
sg61
Nsg195
g196
((dp2182
g79
I171
sg108
I187
sg71
I154
stp2183
Rp2184
sg200
F-9.076580381796658
sg201
F1.0
sg202
g203
sg206
Nsg204
g205
sg207
I50
sbsbag0
(g8
g2
Ntp2185
Rp2186
(dp2187
g12
F-1717.3366337336909
sg13
g0
(g14
g2
Ntp2188
Rp2189
(dp2190
g18
F-1717.3366337336909
sg19
Nsg20
F1.0
sg21
g0
(g22
g2
Ntp2191
Rp2192
(dp2193
g26
g27
sg28
Nsg29
g2192
sg30
(lp2194
g0
(g22
g2
Ntp2195
Rp2196
(dp2197
g26
g35
sg28
g2192
sg29
g2196
sg30
(lp2198
g0
(g22
g2
Ntp2199
Rp2200
(dp2201
g26
g40
sg28
g2196
sg29
g2200
sg30
(lp2202
g0
(g22
g2
Ntp2203
Rp2204
(dp2205
g26
g45
sg28
g2200
sg29
g2204
sg30
(lp2206
g0
(g22
g2
Ntp2207
Rp2208
(dp2209
g26
g121
sg28
g2204
sg29
g0
(g22
g2
Ntp2210
Rp2211
g2209
bsg30
Nsg51
g52
sg53
Nsbag0
(g22
g2
Ntp2212
Rp2213
(dp2214
g26
g45
sg28
g2204
sg29
g2213
sg30
(lp2215
g0
(g22
g2
Ntp2216
Rp2217
(dp2218
g26
g79
sg28
g2213
sg29
g2217
sg30
Nsg51
g52
sg53
Nsbag0
(g22
g2
Ntp2219
Rp2220
(dp2221
g26
g83
sg28
g2213
sg29
g2220
sg30
(lp2222
g0
(g22
g2
Ntp2223
Rp2224
(dp2225
g26
g71
sg28
g2220
sg29
g2224
sg30
Nsg51
g52
sg53
Nsbasg51
g88
sg53
Nsbasg51
g88
sg53
Nsbasg51
g88
sg53
Nsbasg51
g89
sg53
Nsbasg51
g90
sg53
Nsbasg51
g91
sg53
Nsbsg92
F-1708.2600533518942
sg93
g94
sg172
Nsg29
g174
sg61
Nsg195
g196
((dp2226
g121
I189
sg71
I157
sg79
I166
stp2227
Rp2228
sg200
F-9.076580381796658
sg201
F1.0
sg202
g203
sg206
Nsg204
g205
sg207
I50
sbsbag0
(g8
g2
Ntp2229
Rp2230
(dp2231
g12
F-1718.840711130467
sg13
g0
(g14
g2
Ntp2232
Rp2233
(dp2234
g18
F-1718.840711130467
sg19
Nsg20
F1.0
sg21
g0
(g22
g2
Ntp2235
Rp2236
(dp2237
g26
g27
sg28
Nsg29
g2236
sg30
(lp2238
g0
(g22
g2
Ntp2239
Rp2240
(dp2241
g26
g167
sg28
g2236
sg29
g2240
sg30
(lp2242
g0
(g22
g2
Ntp2243
Rp2244
(dp2245
g26
g35
sg28
g2240
sg29
g2244
sg30
(lp2246
g0
(g22
g2
Ntp2247
Rp2248
(dp2249
g26
g40
sg28
g2244
sg29
g2248
sg30
(lp2250
g0
(g22
g2
Ntp2251
Rp2252
(dp2253
g26
g45
sg28
g2248
sg29
g2252
sg30
(lp2254
g0
(g22
g2
Ntp2255
Rp2256
(dp2257
g26
g71
sg28
g2252
sg29
g2256
sg30
Nsg51
g52
sg53
Nsbag0
(g22
g2
Ntp2258
Rp2259
(dp2260
g26
g83
sg28
g2252
sg29
g2259
sg30
(lp2261
g0
(g22
g2
Ntp2262
Rp2263
(dp2264
g26
g50
sg28
g2259
sg29
g2263
sg30
Nsg51
g52
sg53
Nsbasg51
g88
sg53
Nsbasg51
g88
sg53
Nsbasg51
g89
sg53
Nsbasg51
g90
sg53
Nsbag0
(g22
g2
Ntp2265
Rp2266
(dp2267
g26
g35
sg28
g2240
sg29
g0
(g22
g2
Ntp2268
Rp2269
g2267
bsg30
(lp2270
g0
(g22
g2
Ntp2271
Rp2272
(dp2273
g26
g40
sg28
g2266
sg29
g2272
sg30
(lp2274
g0
(g22
g2
Ntp2275
Rp2276
(dp2277
g26
g83
sg28
g2272
sg29
g2276
sg30
(lp2278
g0
(g22
g2
Ntp2279
Rp2280
(dp2281
g26
g114
sg28
g2276
sg29
g2280
sg30
Nsg51
g52
sg53
Nsbasg51
g88
sg53
Nsbasg51
g89
sg53
Nsbasg51
g90
sg53
Nsbasg51
g90
sg53
Nsbasg51
g91
sg53
Nsbsg92
F-1708.2600533518942
sg93
g94
sg172
Nsg29
g174
sg61
Nsg195
g196
((dp2282
S'n e'
p2283
I236
sS'k e'
p2284
I276
stp2285
Rp2286
sg200
F-10.580657778572933
sg201
F1.0
sg202
g203
sg206
Nsg204
g205
sg207
I50
sbsbag0
(g8
g2
Ntp2287
Rp2288
(dp2289
g12
F-1715.9503393725709
sg13
g0
(g14
g2
Ntp2290
Rp2291
(dp2292
g18
F-1715.9503393725709
sg19
Nsg20
F1.0
sg21
g0
(g22
g2
Ntp2293
Rp2294
(dp2295
g26
g27
sg28
Nsg29
g2294
sg30
(lp2296
g0
(g22
g2
Ntp2297
Rp2298
(dp2299
g26
g167
sg28
g2294
sg29
g2298
sg30
(lp2300
g0
(g22
g2
Ntp2301
Rp2302
(dp2303
g26
g35
sg28
g2298
sg29
g0
(g22
g2
Ntp2304
Rp2305
g2303
bsg30
(lp2306
g0
(g22
g2
Ntp2307
Rp2308
(dp2309
g26
g40
sg28
g2302
sg29
g2308
sg30
(lp2310
g0
(g22
g2
Ntp2311
Rp2312
(dp2313
g26
g83
sg28
g2308
sg29
g2312
sg30
(lp2314
g0
(g22
g2
Ntp2315
Rp2316
(dp2317
g26
g135
sg28
g2312
sg29
g2316
sg30
Nsg51
g52
sg53
Nsbasg51
g88
sg53
Nsbasg51
g89
sg53
Nsbasg51
g90
sg53
Nsbag0
(g22
g2
Ntp2318
Rp2319
(dp2320
g26
g35
sg28
g2298
sg29
g2319
sg30
(lp2321
g0
(g22
g2
Ntp2322
Rp2323
(dp2324
g26
g40
sg28
g2319
sg29
g2323
sg30
(lp2325
g0
(g22
g2
Ntp2326
Rp2327
(dp2328
g26
g83
sg28
g2323
sg29
g2327
sg30
(lp2329
g0
(g22
g2
Ntp2330
Rp2331
(dp2332
g26
g114
sg28
g2327
sg29
g2331
sg30
Nsg51
g52
sg53
Nsbasg51
g88
sg53
Nsbasg51
g89
sg53
Nsbasg51
g90
sg53
Nsbasg51
g90
sg53
Nsbasg51
g91
sg53
Nsbsg92
F-1708.2600533518942
sg93
g94
sg172
Nsg29
g174
sg61
Nsg195
g196
((dp2333
S'h e'
p2334
I512
stp2335
Rp2336
sg200
F-7.690286020676767
sg201
F1.0
sg202
g203
sg206
Nsg204
g205
sg207
I50
sbsbag0
(g8
g2
Ntp2337
Rp2338
(dp2339
g12
F-1714.4462619757946
sg13
g0
(g14
g2
Ntp2340
Rp2341
(dp2342
g18
F-1714.4462619757946
sg19
Nsg20
F1.0
sg21
g0
(g22
g2
Ntp2343
Rp2344
(dp2345
g26
g27
sg28
Nsg29
g2344
sg30
(lp2346
g0
(g22
g2
Ntp2347
Rp2348
(dp2349
g26
g35
sg28
g2344
sg29
g2348
sg30
(lp2350
g0
(g22
g2
Ntp2351
Rp2352
(dp2353
g26
g40
sg28
g2348
sg29
g2352
sg30
(lp2354
g0
(g22
g2
Ntp2355
Rp2356
(dp2357
g26
g45
sg28
g2352
sg29
g2356
sg30
(lp2358
g0
(g22
g2
Ntp2359
Rp2360
(dp2361
g26
g121
sg28
g2356
sg29
g2360
sg30
Nsg51
g52
sg53
Nsbag0
(g22
g2
Ntp2362
Rp2363
(dp2364
g26
g83
sg28
g2356
sg29
g2363
sg30
(lp2365
g0
(g22
g2
Ntp2366
Rp2367
(dp2368
g26
g108
sg28
g2363
sg29
g0
(g22
g2
Ntp2369
Rp2370
g2368
bsg30
Nsg51
g52
sg53
Nsbasg51
g88
sg53
Nsbasg51
g88
sg53
Nsbasg51
g89
sg53
Nsbasg51
g90
sg53
Nsbasg51
g91
sg53
Nsbsg92
F-1708.2600533518942
sg93
g94
sg172
Nsg29
g174
sg61
Nsg195
g196
((dp2371
g121
I256
sg108
I256
stp2372
Rp2373
sg200
F-6.1862086239004945
sg201
F1.0
sg202
g203
sg206
Nsg204
g205
sg207
I50
sbsbag0
(g8
g2
Ntp2374
Rp2375
(dp2376
g12
F-1714.4462619757946
sg13
g0
(g14
g2
Ntp2377
Rp2378
(dp2379
g18
F-1714.4462619757946
sg19
Nsg20
F1.0
sg21
g0
(g22
g2
Ntp2380
Rp2381
(dp2382
g26
g27
sg28
Nsg29
g2381
sg30
(lp2383
g0
(g22
g2
Ntp2384
Rp2385
(dp2386
g26
g35
sg28
g2381
sg29
g2385
sg30
(lp2387
g0
(g22
g2
Ntp2388
Rp2389
(dp2390
g26
g40
sg28
g2385
sg29
g0
(g22
g2
Ntp2391
Rp2392
g2390
bsg30
(lp2393
g0
(g22
g2
Ntp2394
Rp2395
(dp2396
g26
g45
sg28
g2389
sg29
g2395
sg30
(lp2397
g0
(g22
g2
Ntp2398
Rp2399
(dp2400
g26
g71
sg28
g2395
sg29
g2399
sg30
Nsg51
g52
sg53
Nsbag0
(g22
g2
Ntp2401
Rp2402
(dp2403
g26
g83
sg28
g2395
sg29
g2402
sg30
(lp2404
g0
(g22
g2
Ntp2405
Rp2406
(dp2407
g26
g135
sg28
g2402
sg29
g2406
sg30
Nsg51
g52
sg53
Nsbasg51
g88
sg53
Nsbasg51
g88
sg53
Nsbasg51
g89
sg53
Nsbasg51
g90
sg53
Nsbasg51
g91
sg53
Nsbsg92
F-1708.2600533518942
sg93
g94
sg172
Nsg29
g174
sg61
Nsg195
g196
((dp2408
g135
I247
sg71
I265
stp2409
Rp2410
sg200
F-6.1862086239004945
sg201
F1.0
sg202
g203
sg206
Nsg204
g205
sg207
I50
sbsbag0
(g8
g2
Ntp2411
Rp2412
(dp2413
g12
F-1717.3366337336909
sg13
g0
(g14
g2
Ntp2414
Rp2415
(dp2416
g18
F-1717.3366337336909
sg19
Nsg20
F1.0
sg21
g0
(g22
g2
Ntp2417
Rp2418
(dp2419
g26
g27
sg28
Nsg29
g2418
sg30
(lp2420
g0
(g22
g2
Ntp2421
Rp2422
(dp2423
g26
g35
sg28
g2418
sg29
g2422
sg30
(lp2424
g0
(g22
g2
Ntp2425
Rp2426
(dp2427
g26
g40
sg28
g2422
sg29
g2426
sg30
(lp2428
g0
(g22
g2
Ntp2429
Rp2430
(dp2431
g26
g45
sg28
g2426
sg29
g0
(g22
g2
Ntp2432
Rp2433
g2431
bsg30
(lp2434
g0
(g22
g2
Ntp2435
Rp2436
(dp2437
g26
g79
sg28
g2430
sg29
g2436
sg30
Nsg51
g52
sg53
Nsbag0
(g22
g2
Ntp2438
Rp2439
(dp2440
g26
g45
sg28
g2430
sg29
g2439
sg30
(lp2441
g0
(g22
g2
Ntp2442
Rp2443
(dp2444
g26
g114
sg28
g2439
sg29
g2443
sg30
Nsg51
g52
sg53
Nsbag0
(g22
g2
Ntp2445
Rp2446
(dp2447
g26
g83
sg28
g2439
sg29
g2446
sg30
(lp2448
g0
(g22
g2
Ntp2449
Rp2450
(dp2451
g26
g108
sg28
g2446
sg29
g2450
sg30
Nsg51
g52
sg53
Nsbasg51
g88
sg53
Nsbasg51
g88
sg53
Nsbasg51
g88
sg53
Nsbasg51
g89
sg53
Nsbasg51
g90
sg53
Nsbasg51
g91
sg53
Nsbsg92
F-1708.2600533518942
sg93
g94
sg172
Nsg29
g174
sg61
Nsg195
g196
((dp2452
g114
I176
sg108
I167
sg79
I169
stp2453
Rp2454
sg200
F-9.076580381796658
sg201
F1.0
sg202
g203
sg206
Nsg204
g205
sg207
I50
sbsbag0
(g8
g2
Ntp2455
Rp2456
(dp2457
g12
F-1714.4462619757946
sg13
g0
(g14
g2
Ntp2458
Rp2459
(dp2460
g18
F-1714.4462619757946
sg19
Nsg20
F1.0
sg21
g0
(g22
g2
Ntp2461
Rp2462
(dp2463
g26
g27
sg28
Nsg29
g2462
sg30
(lp2464
g0
(g22
g2
Ntp2465
Rp2466
(dp2467
g26
g35
sg28
g2462
sg29
g2466
sg30
(lp2468
g0
(g22
g2
Ntp2469
Rp2470
(dp2471
g26
g40
sg28
g2466
sg29
g2470
sg30
(lp2472
g0
(g22
g2
Ntp2473
Rp2474
(dp2475
g26
g45
sg28
g2470
sg29
g2474
sg30
(lp2476
g0
(g22
g2
Ntp2477
Rp2478
(dp2479
g26
g79
sg28
g2474
sg29
g0
(g22
g2
Ntp2480
Rp2481
g2479
bsg30
Nsg51
g52
sg53
Nsbag0
(g22
g2
Ntp2482
Rp2483
(dp2484
g26
g83
sg28
g2474
sg29
g2483
sg30
(lp2485
g0
(g22
g2
Ntp2486
Rp2487
(dp2488
g26
g71
sg28
g2483
sg29
g2487
sg30
Nsg51
g52
sg53
Nsbasg51
g88
sg53
Nsbasg51
g88
sg53
Nsbasg51
g89
sg53
Nsbasg51
g90
sg53
Nsbasg51
g91
sg53
Nsbsg92
F-1708.2600533518942
sg93
g94
sg172
Nsg29
g174
sg61
Nsg195
g196
((dp2489
g71
I268
sg79
I244
stp2490
Rp2491
sg200
F-6.1862086239004945
sg201
F1.0
sg202
g203
sg206
Nsg204
g205
sg207
I50
sbsbag0
(g8
g2
Ntp2492
Rp2493
(dp2494
g12
F-1714.4462619757946
sg13
g0
(g14
g2
Ntp2495
Rp2496
(dp2497
g18
F-1714.4462619757946
sg19
Nsg20
F1.0
sg21
g0
(g22
g2
Ntp2498
Rp2499
(dp2500
g26
g27
sg28
Nsg29
g2499
sg30
(lp2501
g0
(g22
g2
Ntp2502
Rp2503
(dp2504
g26
g35
sg28
g2499
sg29
g2503
sg30
(lp2505
g0
(g22
g2
Ntp2506
Rp2507
(dp2508
g26
g40
sg28
g2503
sg29
g2507
sg30
(lp2509
g0
(g22
g2
Ntp2510
Rp2511
(dp2512
g26
g45
sg28
g2507
sg29
g2511
sg30
(lp2513
g0
(g22
g2
Ntp2514
Rp2515
(dp2516
g26
g50
sg28
g2511
sg29
g0
(g22
g2
Ntp2517
Rp2518
g2516
bsg30
Nsg51
g52
sg53
Nsbag0
(g22
g2
Ntp2519
Rp2520
(dp2521
g26
g83
sg28
g2511
sg29
g2520
sg30
(lp2522
g0
(g22
g2
Ntp2523
Rp2524
(dp2525
g26
g135
sg28
g2520
sg29
g2524
sg30
Nsg51
g52
sg53
Nsbasg51
g88
sg53
Nsbasg51
g88
sg53
Nsbasg51
g89
sg53
Nsbasg51
g90
sg53
Nsbasg51
g91
sg53
Nsbsg92
F-1708.2600533518942
sg93
g94
sg172
Nsg29
g174
sg61
Nsg195
g196
((dp2526
g135
I257
sg50
I255
stp2527
Rp2528
sg200
F-6.1862086239004945
sg201
F1.0
sg202
g203
sg206
Nsg204
g205
sg207
I50
sbsbag0
(g8
g2
Ntp2529
Rp2530
(dp2531
g12
F-1714.4462619757946
sg13
g0
(g14
g2
Ntp2532
Rp2533
(dp2534
g18
F-1714.4462619757946
sg19
Nsg20
F1.0
sg21
g0
(g22
g2
Ntp2535
Rp2536
(dp2537
g26
g27
sg28
Nsg29
g2536
sg30
(lp2538
g0
(g22
g2
Ntp2539
Rp2540
(dp2541
g26
g35
sg28
g2536
sg29
g2540
sg30
(lp2542
g0
(g22
g2
Ntp2543
Rp2544
(dp2545
g26
g40
sg28
g2540
sg29
g0
(g22
g2
Ntp2546
Rp2547
g2545
bsg30
(lp2548
g0
(g22
g2
Ntp2549
Rp2550
(dp2551
g26
g45
sg28
g2544
sg29
g2550
sg30
(lp2552
g0
(g22
g2
Ntp2553
Rp2554
(dp2555
g26
g114
sg28
g2550
sg29
g2554
sg30
Nsg51
g52
sg53
Nsbag0
(g22
g2
Ntp2556
Rp2557
(dp2558
g26
g83
sg28
g2550
sg29
g2557
sg30
(lp2559
g0
(g22
g2
Ntp2560
Rp2561
(dp2562
g26
g135
sg28
g2557
sg29
g2561
sg30
Nsg51
g52
sg53
Nsbasg51
g88
sg53
Nsbasg51
g88
sg53
Nsbasg51
g89
sg53
Nsbasg51
g90
sg53
Nsbasg51
g91
sg53
Nsbsg92
F-1708.2600533518942
sg93
g94
sg172
Nsg29
g174
sg61
Nsg195
g196
((dp2563
g135
I250
sg114
I262
stp2564
Rp2565
sg200
F-6.1862086239004945
sg201
F1.0
sg202
g203
sg206
Nsg204
g205
sg207
I50
sbsbag0
(g8
g2
Ntp2566
Rp2567
(dp2568
g12
F-1720.227005491587
sg13
g0
(g14
g2
Ntp2569
Rp2570
(dp2571
g18
F-1720.227005491587
sg19
Nsg20
F1.0
sg21
g0
(g22
g2
Ntp2572
Rp2573
(dp2574
g26
g27
sg28
Nsg29
g2573
sg30
(lp2575
g0
(g22
g2
Ntp2576
Rp2577
(dp2578
g26
g35
sg28
g2573
sg29
g2577
sg30
(lp2579
g0
(g22
g2
Ntp2580
Rp2581
(dp2582
g26
g40
sg28
g2577
sg29
g2581
sg30
(lp2583
g0
(g22
g2
Ntp2584
Rp2585
(dp2586
g26
g45
sg28
g2581
sg29
g2585
sg30
(lp2587
g0
(g22
g2
Ntp2588
Rp2589
(dp2590
g26
g50
sg28
g2585
sg29
g2589
sg30
Nsg51
g52
sg53
Nsbag0
(g22
g2
Ntp2591
Rp2592
(dp2593
g26
g45
sg28
g2585
sg29
g2592
sg30
(lp2594
g0
(g22
g2
Ntp2595
Rp2596
(dp2597
g26
g79
sg28
g2592
sg29
g2596
sg30
Nsg51
g52
sg53
Nsbag0
(g22
g2
Ntp2598
Rp2599
(dp2600
g26
g45
sg28
g2592
sg29
g0
(g22
g2
Ntp2601
Rp2602
g2600
bsg30
(lp2603
g0
(g22
g2
Ntp2604
Rp2605
(dp2606
g26
g121
sg28
g2599
sg29
g2605
sg30
Nsg51
g52
sg53
Nsbag0
(g22
g2
Ntp2607
Rp2608
(dp2609
g26
g83
sg28
g2599
sg29
g2608
sg30
(lp2610
g0
(g22
g2
Ntp2611
Rp2612
(dp2613
g26
g61
sg28
g2608
sg29
g2612
sg30
Nsg51
g52
sg53
Nsbasg51
g88
sg53
Nsbasg51
g88
sg53
Nsbasg51
g88
sg53
Nsbasg51
g88
sg53
Nsbasg51
g89
sg53
Nsbasg51
g90
sg53
Nsbasg51
g91
sg53
Nsbsg92
F-1708.2600533518942
sg93
g94
sg172
Nsg29
g174
sg61
Nsg195
g196
((dp2614
g50
I128
sg79
I119
sg121
I145
sg61
I120
stp2615
Rp2616
sg200
F-11.966952139692824
sg201
F1.0
sg202
g203
sg206
Nsg204
g205
sg207
I50
sbsbag0
(g8
g2
Ntp2617
Rp2618
(dp2619
g12
F-1717.3366337336909
sg13
g0
(g14
g2
Ntp2620
Rp2621
(dp2622
g18
F-1717.3366337336909
sg19
Nsg20
F1.0
sg21
g0
(g22
g2
Ntp2623
Rp2624
(dp2625
g26
g27
sg28
Nsg29
g2624
sg30
(lp2626
g0
(g22
g2
Ntp2627
Rp2628
(dp2629
g26
g35
sg28
g2624
sg29
g2628
sg30
(lp2630
g0
(g22
g2
Ntp2631
Rp2632
(dp2633
g26
g40
sg28
g2628
sg29
g2632
sg30
(lp2634
g0
(g22
g2
Ntp2635
Rp2636
(dp2637
g26
g45
sg28
g2632
sg29
g2636
sg30
(lp2638
g0
(g22
g2
Ntp2639
Rp2640
(dp2641
g26
g50
sg28
g2636
sg29
g2640
sg30
Nsg51
g52
sg53
Nsbag0
(g22
g2
Ntp2642
Rp2643
(dp2644
g26
g45
sg28
g2636
sg29
g0
(g22
g2
Ntp2645
Rp2646
g2644
bsg30
(lp2647
g0
(g22
g2
Ntp2648
Rp2649
(dp2650
g26
g121
sg28
g2643
sg29
g2649
sg30
Nsg51
g52
sg53
Nsbag0
(g22
g2
Ntp2651
Rp2652
(dp2653
g26
g83
sg28
g2643
sg29
g2652
sg30
(lp2654
g0
(g22
g2
Ntp2655
Rp2656
(dp2657
g26
g61
sg28
g2652
sg29
g2656
sg30
Nsg51
g52
sg53
Nsbasg51
g88
sg53
Nsbasg51
g88
sg53
Nsbasg51
g88
sg53
Nsbasg51
g89
sg53
Nsbasg51
g90
sg53
Nsbasg51
g91
sg53
Nsbsg92
F-1708.2600533518942
sg93
g94
sg172
Nsg29
g174
sg61
Nsg195
g196
((dp2658
g50
I186
sg121
I166
sg61
I160
stp2659
Rp2660
sg200
F-9.076580381796658
sg201
F1.0
sg202
g203
sg206
Nsg204
g205
sg207
I50
sbsbag0
(g8
g2
Ntp2661
Rp2662
(dp2663
g12
F-1714.4462619757946
sg13
g0
(g14
g2
Ntp2664
Rp2665
(dp2666
g18
F-1714.4462619757946
sg19
Nsg20
F1.0
sg21
g0
(g22
g2
Ntp2667
Rp2668
(dp2669
g26
g27
sg28
Nsg29
g2668
sg30
(lp2670
g0
(g22
g2
Ntp2671
Rp2672
(dp2673
g26
g35
sg28
g2668
sg29
g0
(g22
g2
Ntp2674
Rp2675
g2673
bsg30
(lp2676
g0
(g22
g2
Ntp2677
Rp2678
(dp2679
g26
g40
sg28
g2672
sg29
g2678
sg30
(lp2680
g0
(g22
g2
Ntp2681
Rp2682
(dp2683
g26
g45
sg28
g2678
sg29
g2682
sg30
(lp2684
g0
(g22
g2
Ntp2685
Rp2686
(dp2687
g26
g121
sg28
g2682
sg29
g2686
sg30
Nsg51
g52
sg53
Nsbag0
(g22
g2
Ntp2688
Rp2689
(dp2690
g26
g83
sg28
g2682
sg29
g2689
sg30
(lp2691
g0
(g22
g2
Ntp2692
Rp2693
(dp2694
g26
g135
sg28
g2689
sg29
g2693
sg30
Nsg51
g52
sg53
Nsbasg51
g88
sg53
Nsbasg51
g88
sg53
Nsbasg51
g89
sg53
Nsbasg51
g90
sg53
Nsbasg51
g91
sg53
Nsbsg92
F-1708.2600533518942
sg93
g94
sg172
Nsg29
g174
sg61
Nsg195
g196
((dp2695
g135
I266
sg121
I246
stp2696
Rp2697
sg200
F-6.1862086239004945
sg201
F1.0
sg202
g203
sg206
Nsg204
g205
sg207
I50
sbsbag0
(g8
g2
Ntp2698
Rp2699
(dp2700
g12
F-1717.3366337336909
sg13
g0
(g14
g2
Ntp2701
Rp2702
(dp2703
g18
F-1717.3366337336909
sg19
Nsg20
F1.0
sg21
g0
(g22
g2
Ntp2704
Rp2705
(dp2706
g26
g27
sg28
Nsg29
g2705
sg30
(lp2707
g0
(g22
g2
Ntp2708
Rp2709
(dp2710
g26
g35
sg28
g2705
sg29
g2709
sg30
(lp2711
g0
(g22
g2
Ntp2712
Rp2713
(dp2714
g26
g40
sg28
g2709
sg29
g0
(g22
g2
Ntp2715
Rp2716
g2714
bsg30
(lp2717
g0
(g22
g2
Ntp2718
Rp2719
(dp2720
g26
g45
sg28
g2713
sg29
g2719
sg30
(lp2721
g0
(g22
g2
Ntp2722
Rp2723
(dp2724
g26
g50
sg28
g2719
sg29
g2723
sg30
Nsg51
g52
sg53
Nsbag0
(g22
g2
Ntp2725
Rp2726
(dp2727
g26
g45
sg28
g2719
sg29
g2726
sg30
(lp2728
g0
(g22
g2
Ntp2729
Rp2730
(dp2731
g26
g121
sg28
g2726
sg29
g2730
sg30
Nsg51
g52
sg53
Nsbag0
(g22
g2
Ntp2732
Rp2733
(dp2734
g26
g83
sg28
g2726
sg29
g2733
sg30
(lp2735
g0
(g22
g2
Ntp2736
Rp2737
(dp2738
g26
g50
sg28
g2733
sg29
g2737
sg30
Nsg51
g52
sg53
Nsbasg51
g88
sg53
Nsbasg51
g88
sg53
Nsbasg51
g88
sg53
Nsbasg51
g89
sg53
Nsbasg51
g90
sg53
Nsbasg51
g91
sg53
Nsbsg92
F-1708.2600533518942
sg93
g94
sg172
Nsg29
g174
sg61
Nsg195
g196
((dp2739
g50
I337
sg121
I175
stp2740
Rp2741
sg200
F-9.076580381796658
sg201
F1.0
sg202
g203
sg206
Nsg204
g205
sg207
I50
sbsbag0
(g8
g2
Ntp2742
Rp2743
(dp2744
g12
F-1717.3366337336909
sg13
g0
(g14
g2
Ntp2745
Rp2746
(dp2747
g18
F-1717.3366337336909
sg19
Nsg20
F1.0
sg21
g0
(g22
g2
Ntp2748
Rp2749
(dp2750
g26
g27
sg28
Nsg29
g2749
sg30
(lp2751
g0
(g22
g2
Ntp2752
Rp2753
(dp2754
g26
g35
sg28
g2749
sg29
g2753
sg30
(lp2755
g0
(g22
g2
Ntp2756
Rp2757
(dp2758
g26
g40
sg28
g2753
sg29
g2757
sg30
(lp2759
g0
(g22
g2
Ntp2760
Rp2761
(dp2762
g26
g45
sg28
g2757
sg29
g0
(g22
g2
Ntp2763
Rp2764
g2762
bsg30
(lp2765
g0
(g22
g2
Ntp2766
Rp2767
(dp2768
g26
g50
sg28
g2761
sg29
g2767
sg30
Nsg51
g52
sg53
Nsbag0
(g22
g2
Ntp2769
Rp2770
(dp2771
g26
g45
sg28
g2761
sg29
g2770
sg30
(lp2772
g0
(g22
g2
Ntp2773
Rp2774
(dp2775
g26
g61
sg28
g2770
sg29
g2774
sg30
Nsg51
g52
sg53
Nsbag0
(g22
g2
Ntp2776
Rp2777
(dp2778
g26
g83
sg28
g2770
sg29
g2777
sg30
(lp2779
g0
(g22
g2
Ntp2780
Rp2781
(dp2782
g26
g61
sg28
g2777
sg29
g2781
sg30
Nsg51
g52
sg53
Nsbasg51
g88
sg53
Nsbasg51
g88
sg53
Nsbasg51
g88
sg53
Nsbasg51
g89
sg53
Nsbasg51
g90
sg53
Nsbasg51
g91
sg53
Nsbsg92
F-1708.2600533518942
sg93
g94
sg172
Nsg29
g174
sg61
Nsg195
g196
((dp2783
g50
I159
sg61
I353
stp2784
Rp2785
sg200
F-9.076580381796658
sg201
F1.0
sg202
g203
sg206
Nsg204
g205
sg207
I50
sbsbag0
(g8
g2
Ntp2786
Rp2787
(dp2788
g12
F-1714.4462619757946
sg13
g0
(g14
g2
Ntp2789
Rp2790
(dp2791
g18
F-1714.4462619757946
sg19
Nsg20
F1.0
sg21
g0
(g22
g2
Ntp2792
Rp2793
(dp2794
g26
g27
sg28
Nsg29
g2793
sg30
(lp2795
g0
(g22
g2
Ntp2796
Rp2797
(dp2798
g26
g35
sg28
g2793
sg29
g2797
sg30
(lp2799
g0
(g22
g2
Ntp2800
Rp2801
(dp2802
g26
g40
sg28
g2797
sg29
g2801
sg30
(lp2803
g0
(g22
g2
Ntp2804
Rp2805
(dp2806
g26
g45
sg28
g2801
sg29
g0
(g22
g2
Ntp2807
Rp2808
g2806
bsg30
(lp2809
g0
(g22
g2
Ntp2810
Rp2811
(dp2812
g26
g135
sg28
g2805
sg29
g2811
sg30
Nsg51
g52
sg53
Nsbag0
(g22
g2
Ntp2813
Rp2814
(dp2815
g26
g83
sg28
g2805
sg29
g2814
sg30
(lp2816
g0
(g22
g2
Ntp2817
Rp2818
(dp2819
g26
g108
sg28
g2814
sg29
g2818
sg30
Nsg51
g52
sg53
Nsbasg51
g88
sg53
Nsbasg51
g88
sg53
Nsbasg51
g89
sg53
Nsbasg51
g90
sg53
Nsbasg51
g91
sg53
Nsbsg92
F-1708.2600533518942
sg93
g94
sg172
Nsg29
g174
sg61
Nsg195
g196
((dp2820
g135
I249
sg108
I263
stp2821
Rp2822
sg200
F-6.1862086239004945
sg201
F1.0
sg202
g203
sg206
Nsg204
g205
sg207
I50
sbsbag0
(g8
g2
Ntp2823
Rp2824
(dp2825
g12
F-1714.4462619757946
sg13
g0
(g14
g2
Ntp2826
Rp2827
(dp2828
g18
F-1714.4462619757946
sg19
Nsg20
F1.0
sg21
g0
(g22
g2
Ntp2829
Rp2830
(dp2831
g26
g27
sg28
Nsg29
g0
(g22
g2
Ntp2832
Rp2833
g2831
bsg30
(lp2834
g0
(g22
g2
Ntp2835
Rp2836
(dp2837
g26
g35
sg28
g2830
sg29
g2836
sg30
(lp2838
g0
(g22
g2
Ntp2839
Rp2840
(dp2841
g26
g40
sg28
g2836
sg29
g2840
sg30
(lp2842
g0
(g22
g2
Ntp2843
Rp2844
(dp2845
g26
g45
sg28
g2840
sg29
g2844
sg30
(lp2846
g0
(g22
g2
Ntp2847
Rp2848
(dp2849
g26
g61
sg28
g2844
sg29
g2848
sg30
Nsg51
g52
sg53
Nsbag0
(g22
g2
Ntp2850
Rp2851
(dp2852
g26
g83
sg28
g2844
sg29
g2851
sg30
(lp2853
g0
(g22
g2
Ntp2854
Rp2855
(dp2856
g26
g71
sg28
g2851
sg29
g2855
sg30
Nsg51
g52
sg53
Nsbasg51
g88
sg53
Nsbasg51
g88
sg53
Nsbasg51
g89
sg53
Nsbasg51
g90
sg53
Nsbasg51
g91
sg53
Nsbsg92
F-1708.2600533518942
sg93
g94
sg172
Nsg29
g174
sg61
Nsg195
g196
((dp2857
g71
I253
sg61
I259
stp2858
Rp2859
sg200
F-6.1862086239004945
sg201
F1.0
sg202
g203
sg206
Nsg204
g205
sg207
I50
sbsbag0
(g8
g2
Ntp2860
Rp2861
(dp2862
g12
F-1717.3366337336909
sg13
g0
(g14
g2
Ntp2863
Rp2864
(dp2865
g18
F-1717.3366337336909
sg19
Nsg20
F1.0
sg21
g0
(g22
g2
Ntp2866
Rp2867
(dp2868
g26
g27
sg28
Nsg29
g2867
sg30
(lp2869
g0
(g22
g2
Ntp2870
Rp2871
(dp2872
g26
g35
sg28
g2867
sg29
g0
(g22
g2
Ntp2873
Rp2874
g2872
bsg30
(lp2875
g0
(g22
g2
Ntp2876
Rp2877
(dp2878
g26
g40
sg28
g2871
sg29
g2877
sg30
(lp2879
g0
(g22
g2
Ntp2880
Rp2881
(dp2882
g26
g45
sg28
g2877
sg29
g2881
sg30
(lp2883
g0
(g22
g2
Ntp2884
Rp2885
(dp2886
g26
g108
sg28
g2881
sg29
g2885
sg30
Nsg51
g52
sg53
Nsbag0
(g22
g2
Ntp2887
Rp2888
(dp2889
g26
g45
sg28
g2881
sg29
g2888
sg30
(lp2890
g0
(g22
g2
Ntp2891
Rp2892
(dp2893
g26
g79
sg28
g2888
sg29
g2892
sg30
Nsg51
g52
sg53
Nsbag0
(g22
g2
Ntp2894
Rp2895
(dp2896
g26
g83
sg28
g2888
sg29
g2895
sg30
(lp2897
g0
(g22
g2
Ntp2898
Rp2899
(dp2900
g26
g108
sg28
g2895
sg29
g2899
sg30
Nsg51
g52
sg53
Nsbasg51
g88
sg53
Nsbasg51
g88
sg53
Nsbasg51
g88
sg53
Nsbasg51
g89
sg53
Nsbasg51
g90
sg53
Nsbasg51
g91
sg53
Nsbsg92
F-1708.2600533518942
sg93
g94
sg172
Nsg29
g174
sg61
Nsg195
g196
((dp2901
g108
I347
sg79
I165
stp2902
Rp2903
sg200
F-9.076580381796658
sg201
F1.0
sg202
g203
sg206
Nsg204
g205
sg207
I50
sbsbag0
(g8
g2
Ntp2904
Rp2905
(dp2906
g12
F-1717.3366337336909
sg13
g0
(g14
g2
Ntp2907
Rp2908
(dp2909
g18
F-1717.3366337336909
sg19
Nsg20
F1.0
sg21
g0
(g22
g2
Ntp2910
Rp2911
(dp2912
g26
g27
sg28
Nsg29
g2911
sg30
(lp2913
g0
(g22
g2
Ntp2914
Rp2915
(dp2916
g26
g35
sg28
g2911
sg29
g2915
sg30
(lp2917
g0
(g22
g2
Ntp2918
Rp2919
(dp2920
g26
g40
sg28
g2915
sg29
g2919
sg30
(lp2921
g0
(g22
g2
Ntp2922
Rp2923
(dp2924
g26
g45
sg28
g2919
sg29
g0
(g22
g2
Ntp2925
Rp2926
g2924
bsg30
(lp2927
g0
(g22
g2
Ntp2928
Rp2929
(dp2930
g26
g71
sg28
g2923
sg29
g2929
sg30
Nsg51
g52
sg53
Nsbag0
(g22
g2
Ntp2931
Rp2932
(dp2933
g26
g45
sg28
g2923
sg29
g2932
sg30
(lp2934
g0
(g22
g2
Ntp2935
Rp2936
(dp2937
g26
g71
sg28
g2932
sg29
g2936
sg30
Nsg51
g52
sg53
Nsbag0
(g22
g2
Ntp2938
Rp2939
(dp2940
g26
g83
sg28
g2932
sg29
g2939
sg30
(lp2941
g0
(g22
g2
Ntp2942
Rp2943
(dp2944
g26
g114
sg28
g2939
sg29
g2943
sg30
Nsg51
g52
sg53
Nsbasg51
g88
sg53
Nsbasg51
g88
sg53
Nsbasg51
g88
sg53
Nsbasg51
g89
sg53
Nsbasg51
g90
sg53
Nsbasg51
g91
sg53
Nsbsg92
F-1708.2600533518942
sg93
g94
sg172
Nsg29
g174
sg61
Nsg195
g196
((dp2945
g114
I180
sg71
I332
stp2946
Rp2947
sg200
F-9.076580381796658
sg201
F1.0
sg202
g203
sg206
Nsg204
g205
sg207
I50
sbsbag0
(g8
g2
Ntp2948
Rp2949
(dp2950
g12
F-1714.4462619757946
sg13
g0
(g14
g2
Ntp2951
Rp2952
(dp2953
g18
F-1714.4462619757946
sg19
Nsg20
F1.0
sg21
g0
(g22
g2
Ntp2954
Rp2955
(dp2956
g26
g27
sg28
Nsg29
g2955
sg30
(lp2957
g0
(g22
g2
Ntp2958
Rp2959
(dp2960
g26
g35
sg28
g2955
sg29
g0
(g22
g2
Ntp2961
Rp2962
g2960
bsg30
(lp2963
g0
(g22
g2
Ntp2964
Rp2965
(dp2966
g26
g40
sg28
g2959
sg29
g2965
sg30
(lp2967
g0
(g22
g2
Ntp2968
Rp2969
(dp2970
g26
g45
sg28
g2965
sg29
g2969
sg30
(lp2971
g0
(g22
g2
Ntp2972
Rp2973
(dp2974
g26
g61
sg28
g2969
sg29
g2973
sg30
Nsg51
g52
sg53
Nsbag0
(g22
g2
Ntp2975
Rp2976
(dp2977
g26
g83
sg28
g2969
sg29
g2976
sg30
(lp2978
g0
(g22
g2
Ntp2979
Rp2980
(dp2981
g26
g50
sg28
g2976
sg29
g2980
sg30
Nsg51
g52
sg53
Nsbasg51
g88
sg53
Nsbasg51
g88
sg53
Nsbasg51
g89
sg53
Nsbasg51
g90
sg53
Nsbasg51
g91
sg53
Nsbsg92
F-1708.2600533518942
sg93
g94
sg172
Nsg29
g174
sg61
Nsg195
g196
((dp2982
g50
I251
sg61
I261
stp2983
Rp2984
sg200
F-6.1862086239004945
sg201
F1.0
sg202
g203
sg206
Nsg204
g205
sg207
I50
sbsbag0
(g8
g2
Ntp2985
Rp2986
(dp2987
g12
F-1714.4462619757946
sg13
g0
(g14
g2
Ntp2988
Rp2989
(dp2990
g18
F-1714.4462619757946
sg19
Nsg20
F1.0
sg21
g0
(g22
g2
Ntp2991
Rp2992
(dp2993
g26
g27
sg28
Nsg29
g2992
sg30
(lp2994
g0
(g22
g2
Ntp2995
Rp2996
(dp2997
g26
g35
sg28
g2992
sg29
g0
(g22
g2
Ntp2998
Rp2999
g2997
bsg30
(lp3000
g0
(g22
g2
Ntp3001
Rp3002
(dp3003
g26
g40
sg28
g2996
sg29
g3002
sg30
(lp3004
g0
(g22
g2
Ntp3005
Rp3006
(dp3007
g26
g45
sg28
g3002
sg29
g3006
sg30
(lp3008
g0
(g22
g2
Ntp3009
Rp3010
(dp3011
g26
g114
sg28
g3006
sg29
g3010
sg30
Nsg51
g52
sg53
Nsbag0
(g22
g2
Ntp3012
Rp3013
(dp3014
g26
g83
sg28
g3006
sg29
g3013
sg30
(lp3015
g0
(g22
g2
Ntp3016
Rp3017
(dp3018
g26
g121
sg28
g3013
sg29
g3017
sg30
Nsg51
g52
sg53
Nsbasg51
g88
sg53
Nsbasg51
g88
sg53
Nsbasg51
g89
sg53
Nsbasg51
g90
sg53
Nsbasg51
g91
sg53
Nsbsg92
F-1708.2600533518942
sg93
g94
sg172
Nsg29
g174
sg61
Nsg195
g196
((dp3019
g121
I255
sg114
I257
stp3020
Rp3021
sg200
F-6.1862086239004945
sg201
F1.0
sg202
g203
sg206
Nsg204
g205
sg207
I50
sbsbag0
(g8
g2
Ntp3022
Rp3023
(dp3024
g12
F-1717.3366337336909
sg13
g0
(g14
g2
Ntp3025
Rp3026
(dp3027
g18
F-1717.3366337336909
sg19
Nsg20
F1.0
sg21
g0
(g22
g2
Ntp3028
Rp3029
(dp3030
g26
g27
sg28
Nsg29
g0
(g22
g2
Ntp3031
Rp3032
g3030
bsg30
(lp3033
g0
(g22
g2
Ntp3034
Rp3035
(dp3036
g26
g35
sg28
g3029
sg29
g3035
sg30
(lp3037
g0
(g22
g2
Ntp3038
Rp3039
(dp3040
g26
g40
sg28
g3035
sg29
g3039
sg30
(lp3041
g0
(g22
g2
Ntp3042
Rp3043
(dp3044
g26
g45
sg28
g3039
sg29
g3043
sg30
(lp3045
g0
(g22
g2
Ntp3046
Rp3047
(dp3048
g26
g50
sg28
g3043
sg29
g3047
sg30
Nsg51
g52
sg53
Nsbag0
(g22
g2
Ntp3049
Rp3050
(dp3051
g26
g45
sg28
g3043
sg29
g3050
sg30
(lp3052
g0
(g22
g2
Ntp3053
Rp3054
(dp3055
g26
g79
sg28
g3050
sg29
g3054
sg30
Nsg51
g52
sg53
Nsbag0
(g22
g2
Ntp3056
Rp3057
(dp3058
g26
g83
sg28
g3050
sg29
g3057
sg30
(lp3059
g0
(g22
g2
Ntp3060
Rp3061
(dp3062
g26
g79
sg28
g3057
sg29
g3061
sg30
Nsg51
g52
sg53
Nsbasg51
g88
sg53
Nsbasg51
g88
sg53
Nsbasg51
g88
sg53
Nsbasg51
g89
sg53
Nsbasg51
g90
sg53
Nsbasg51
g91
sg53
Nsbsg92
F-1708.2600533518942
sg93
g94
sg172
Nsg29
g174
sg61
Nsg195
g196
((dp3063
g50
I180
sg79
I332
stp3064
Rp3065
sg200
F-9.076580381796658
sg201
F1.0
sg202
g203
sg206
Nsg204
g205
sg207
I50
sbsbag0
(g8
g2
Ntp3066
Rp3067
(dp3068
g12
F-1711.5558902178984
sg13
g0
(g14
g2
Ntp3069
Rp3070
(dp3071
g18
F-1711.5558902178984
sg19
Nsg20
F1.0
sg21
g0
(g22
g2
Ntp3072
Rp3073
(dp3074
g26
g27
sg28
Nsg29
g0
(g22
g2
Ntp3075
Rp3076
g3074
bsg30
(lp3077
g0
(g22
g2
Ntp3078
Rp3079
(dp3080
g26
g35
sg28
g3073
sg29
g3079
sg30
(lp3081
g0
(g22
g2
Ntp3082
Rp3083
(dp3084
g26
g40
sg28
g3079
sg29
g3083
sg30
(lp3085
g0
(g22
g2
Ntp3086
Rp3087
(dp3088
g26
g83
sg28
g3083
sg29
g3087
sg30
(lp3089
g0
(g22
g2
Ntp3090
Rp3091
(dp3092
g26
g79
sg28
g3087
sg29
g3091
sg30
Nsg51
g52
sg53
Nsbasg51
g88
sg53
Nsbasg51
g89
sg53
Nsbasg51
g90
sg53
Nsbasg51
g91
sg53
Nsbsg92
F-1708.2600533518942
sg93
g94
sg172
Nsg29
g174
sg61
Nsg195
g196
((dp3093
g79
I512
stp3094
Rp3095
sg200
F-3.295836866004329
sg201
F1.0
sg202
g203
sg206
Nsg204
g205
sg207
I50
sbsbag0
(g8
g2
Ntp3096
Rp3097
(dp3098
g12
F-1717.3366337336909
sg13
g0
(g14
g2
Ntp3099
Rp3100
(dp3101
g18
F-1717.3366337336909
sg19
Nsg20
F1.0
sg21
g0
(g22
g2
Ntp3102
Rp3103
(dp3104
g26
g27
sg28
Nsg29
g3103
sg30
(lp3105
g0
(g22
g2
Ntp3106
Rp3107
(dp3108
g26
g35
sg28
g3103
sg29
g3107
sg30
(lp3109
g0
(g22
g2
Ntp3110
Rp3111
(dp3112
g26
g40
sg28
g3107
sg29
g3111
sg30
(lp3113
g0
(g22
g2
Ntp3114
Rp3115
(dp3116
g26
g45
sg28
g3111
sg29
g3115
sg30
(lp3117
g0
(g22
g2
Ntp3118
Rp3119
(dp3120
g26
g108
sg28
g3115
sg29
g3119
sg30
Nsg51
g52
sg53
Nsbag0
(g22
g2
Ntp3121
Rp3122
(dp3123
g26
g45
sg28
g3115
sg29
g3122
sg30
(lp3124
g0
(g22
g2
Ntp3125
Rp3126
(dp3127
g26
g79
sg28
g3122
sg29
g3126
sg30
Nsg51
g52
sg53
Nsbag0
(g22
g2
Ntp3128
Rp3129
(dp3130
g26
g83
sg28
g3122
sg29
g3129
sg30
(lp3131
g0
(g22
g2
Ntp3132
Rp3133
(dp3134
g26
g79
sg28
g3129
sg29
g0
(g22
g2
Ntp3135
Rp3136
g3134
bsg30
Nsg51
g52
sg53
Nsbasg51
g88
sg53
Nsbasg51
g88
sg53
Nsbasg51
g88
sg53
Nsbasg51
g89
sg53
Nsbasg51
g90
sg53
Nsbasg51
g91
sg53
Nsbsg92
F-1708.2600533518942
sg93
g94
sg172
Nsg29
g174
sg61
Nsg195
g196
((dp3137
g108
I165
sg79
I347
stp3138
Rp3139
sg200
F-9.076580381796658
sg201
F1.0
sg202
g203
sg206
Nsg204
g205
sg207
I50
sbsbag0
(g8
g2
Ntp3140
Rp3141
(dp3142
g12
F-1711.5558902178984
sg13
g0
(g14
g2
Ntp3143
Rp3144
(dp3145
g18
F-1711.5558902178984
sg19
Nsg20
F1.0
sg21
g0
(g22
g2
Ntp3146
Rp3147
(dp3148
g26
g27
sg28
Nsg29
g3147
sg30
(lp3149
g0
(g22
g2
Ntp3150
Rp3151
(dp3152
g26
g35
sg28
g3147
sg29
g3151
sg30
(lp3153
g0
(g22
g2
Ntp3154
Rp3155
(dp3156
g26
g40
sg28
g3151
sg29
g3155
sg30
(lp3157
g0
(g22
g2
Ntp3158
Rp3159
(dp3160
g26
g83
sg28
g3155
sg29
g0
(g22
g2
Ntp3161
Rp3162
g3160
bsg30
(lp3163
g0
(g22
g2
Ntp3164
Rp3165
(dp3166
g26
g114
sg28
g3159
sg29
g3165
sg30
Nsg51
g52
sg53
Nsbasg51
g88
sg53
Nsbasg51
g89
sg53
Nsbasg51
g90
sg53
Nsbasg51
g91
sg53
Nsbsg92
F-1708.2600533518942
sg93
g94
sg172
Nsg29
g174
sg61
Nsg195
g196
((dp3167
g114
I512
stp3168
Rp3169
sg200
F-3.295836866004329
sg201
F1.0
sg202
g203
sg206
Nsg204
g205
sg207
I50
sbsbag0
(g8
g2
Ntp3170
Rp3171
(dp3172
g12
F-1714.4462619757946
sg13
g0
(g14
g2
Ntp3173
Rp3174
(dp3175
g18
F-1714.4462619757946
sg19
Nsg20
F1.0
sg21
g0
(g22
g2
Ntp3176
Rp3177
(dp3178
g26
g27
sg28
Nsg29
g3177
sg30
(lp3179
g0
(g22
g2
Ntp3180
Rp3181
(dp3182
g26
g35
sg28
g3177
sg29
g3181
sg30
(lp3183
g0
(g22
g2
Ntp3184
Rp3185
(dp3186
g26
g40
sg28
g3181
sg29
g3185
sg30
(lp3187
g0
(g22
g2
Ntp3188
Rp3189
(dp3190
g26
g45
sg28
g3185
sg29
g0
(g22
g2
Ntp3191
Rp3192
g3190
bsg30
(lp3193
g0
(g22
g2
Ntp3194
Rp3195
(dp3196
g26
g108
sg28
g3189
sg29
g3195
sg30
Nsg51
g52
sg53
Nsbag0
(g22
g2
Ntp3197
Rp3198
(dp3199
g26
g83
sg28
g3189
sg29
g3198
sg30
(lp3200
g0
(g22
g2
Ntp3201
Rp3202
(dp3203
g26
g50
sg28
g3198
sg29
g3202
sg30
Nsg51
g52
sg53
Nsbasg51
g88
sg53
Nsbasg51
g88
sg53
Nsbasg51
g89
sg53
Nsbasg51
g90
sg53
Nsbasg51
g91
sg53
Nsbsg92
F-1708.2600533518942
sg93
g94
sg172
Nsg29
g174
sg61
Nsg195
g196
((dp3204
g50
I235
sg108
I277
stp3205
Rp3206
sg200
F-6.1862086239004945
sg201
F1.0
sg202
g203
sg206
Nsg204
g205
sg207
I50
sbsbag0
(g8
g2
Ntp3207
Rp3208
(dp3209
g12
F-1714.4462619757946
sg13
g0
(g14
g2
Ntp3210
Rp3211
(dp3212
g18
F-1714.4462619757946
sg19
Nsg20
F1.0
sg21
g0
(g22
g2
Ntp3213
Rp3214
(dp3215
g26
g27
sg28
Nsg29
g3214
sg30
(lp3216
g0
(g22
g2
Ntp3217
Rp3218
(dp3219
g26
g35
sg28
g3214
sg29
g3218
sg30
(lp3220
g0
(g22
g2
Ntp3221
Rp3222
(dp3223
g26
g40
sg28
g3218
sg29
g0
(g22
g2
Ntp3224
Rp3225
g3223
bsg30
(lp3226
g0
(g22
g2
Ntp3227
Rp3228
(dp3229
g26
g45
sg28
g3222
sg29
g3228
sg30
(lp3230
g0
(g22
g2
Ntp3231
Rp3232
(dp3233
g26
g50
sg28
g3228
sg29
g3232
sg30
Nsg51
g52
sg53
Nsbag0
(g22
g2
Ntp3234
Rp3235
(dp3236
g26
g83
sg28
g3228
sg29
g3235
sg30
(lp3237
g0
(g22
g2
Ntp3238
Rp3239
(dp3240
g26
g61
sg28
g3235
sg29
g3239
sg30
Nsg51
g52
sg53
Nsbasg51
g88
sg53
Nsbasg51
g88
sg53
Nsbasg51
g89
sg53
Nsbasg51
g90
sg53
Nsbasg51
g91
sg53
Nsbsg92
F-1708.2600533518942
sg93
g94
sg172
Nsg29
g174
sg61
Nsg195
g196
((dp3241
g50
I264
sg61
I248
stp3242
Rp3243
sg200
F-6.1862086239004945
sg201
F1.0
sg202
g203
sg206
Nsg204
g205
sg207
I50
sbsbag0
(g8
g2
Ntp3244
Rp3245
(dp3246
g12
F-1714.4462619757946
sg13
g0
(g14
g2
Ntp3247
Rp3248
(dp3249
g18
F-1714.4462619757946
sg19
Nsg20
F1.0
sg21
g0
(g22
g2
Ntp3250
Rp3251
(dp3252
g26
g27
sg28
Nsg29
g3251
sg30
(lp3253
g0
(g22
g2
Ntp3254
Rp3255
(dp3256
g26
g35
sg28
g3251
sg29
g0
(g22
g2
Ntp3257
Rp3258
g3256
bsg30
(lp3259
g0
(g22
g2
Ntp3260
Rp3261
(dp3262
g26
g40
sg28
g3255
sg29
g3261
sg30
(lp3263
g0
(g22
g2
Ntp3264
Rp3265
(dp3266
g26
g45
sg28
g3261
sg29
g3265
sg30
(lp3267
g0
(g22
g2
Ntp3268
Rp3269
(dp3270
g26
g114
sg28
g3265
sg29
g3269
sg30
Nsg51
g52
sg53
Nsbag0
(g22
g2
Ntp3271
Rp3272
(dp3273
g26
g83
sg28
g3265
sg29
g3272
sg30
(lp3274
g0
(g22
g2
Ntp3275
Rp3276
(dp3277
g26
g71
sg28
g3272
sg29
g3276
sg30
Nsg51
g52
sg53
Nsbasg51
g88
sg53
Nsbasg51
g88
sg53
Nsbasg51
g89
sg53
Nsbasg51
g90
sg53
Nsbasg51
g91
sg53
Nsbsg92
F-1708.2600533518942
sg93
g94
sg172
Nsg29
g174
sg61
Nsg195
g196
((dp3278
g114
I269
sg71
I243
stp3279
Rp3280
sg200
F-6.1862086239004945
sg201
F1.0
sg202
g203
sg206
Nsg204
g205
sg207
I50
sbsbag0
(g8
g2
Ntp3281
Rp3282
(dp3283
g12
F-1711.5558902178984
sg13
g174
sbag0
(g8
g2
Ntp3284
Rp3285
(dp3286
g12
F-1714.4462619757946
sg13
g0
(g14
g2
Ntp3287
Rp3288
(dp3289
g18
F-1714.4462619757946
sg19
Nsg20
F1.0
sg21
g0
(g22
g2
Ntp3290
Rp3291
(dp3292
g26
g27
sg28
Nsg29
g3291
sg30
(lp3293
g0
(g22
g2
Ntp3294
Rp3295
(dp3296
g26
g35
sg28
g3291
sg29
g3295
sg30
(lp3297
g0
(g22
g2
Ntp3298
Rp3299
(dp3300
g26
g40
sg28
g3295
sg29
g3299
sg30
(lp3301
g0
(g22
g2
Ntp3302
Rp3303
(dp3304
g26
g45
sg28
g3299
sg29
g0
(g22
g2
Ntp3305
Rp3306
g3304
bsg30
(lp3307
g0
(g22
g2
Ntp3308
Rp3309
(dp3310
g26
g79
sg28
g3303
sg29
g3309
sg30
Nsg51
g52
sg53
Nsbag0
(g22
g2
Ntp3311
Rp3312
(dp3313
g26
g83
sg28
g3303
sg29
g3312
sg30
(lp3314
g0
(g22
g2
Ntp3315
Rp3316
(dp3317
g26
g114
sg28
g3312
sg29
g3316
sg30
Nsg51
g52
sg53
Nsbasg51
g88
sg53
Nsbasg51
g88
sg53
Nsbasg51
g89
sg53
Nsbasg51
g90
sg53
Nsbasg51
g91
sg53
Nsbsg92
F-1708.2600533518942
sg93
g94
sg172
Nsg29
g174
sg61
Nsg195
g196
((dp3318
g114
I248
sg79
I264
stp3319
Rp3320
sg200
F-6.1862086239004945
sg201
F1.0
sg202
g203
sg206
Nsg204
g205
sg207
I50
sbsbag0
(g8
g2
Ntp3321
Rp3322
(dp3323
g12
F-1714.4462619757946
sg13
g0
(g14
g2
Ntp3324
Rp3325
(dp3326
g18
F-1714.4462619757946
sg19
Nsg20
F1.0
sg21
g0
(g22
g2
Ntp3327
Rp3328
(dp3329
g26
g27
sg28
Nsg29
g0
(g22
g2
Ntp3330
Rp3331
g3329
bsg30
(lp3332
g0
(g22
g2
Ntp3333
Rp3334
(dp3335
g26
g35
sg28
g3328
sg29
g3334
sg30
(lp3336
g0
(g22
g2
Ntp3337
Rp3338
(dp3339
g26
g40
sg28
g3334
sg29
g3338
sg30
(lp3340
g0
(g22
g2
Ntp3341
Rp3342
(dp3343
g26
g45
sg28
g3338
sg29
g3342
sg30
(lp3344
g0
(g22
g2
Ntp3345
Rp3346
(dp3347
g26
g71
sg28
g3342
sg29
g3346
sg30
Nsg51
g52
sg53
Nsbag0
(g22
g2
Ntp3348
Rp3349
(dp3350
g26
g83
sg28
g3342
sg29
g3349
sg30
(lp3351
g0
(g22
g2
Ntp3352
Rp3353
(dp3354
g26
g50
sg28
g3349
sg29
g3353
sg30
Nsg51
g52
sg53
Nsbasg51
g88
sg53
Nsbasg51
g88
sg53
Nsbasg51
g89
sg53
Nsbasg51
g90
sg53
Nsbasg51
g91
sg53
Nsbsg92
F-1708.2600533518942
sg93
g94
sg172
Nsg29
g174
sg61
Nsg195
g196
((dp3355
g50
I264
sg71
I248
stp3356
Rp3357
sg200
F-6.1862086239004945
sg201
F1.0
sg202
g203
sg206
Nsg204
g205
sg207
I50
sbsbag0
(g8
g2
Ntp3358
Rp3359
(dp3360
g12
F-1714.4462619757946
sg13
g0
(g14
g2
Ntp3361
Rp3362
(dp3363
g18
F-1714.4462619757946
sg19
Nsg20
F1.0
sg21
g0
(g22
g2
Ntp3364
Rp3365
(dp3366
g26
g27
sg28
Nsg29
g3365
sg30
(lp3367
g0
(g22
g2
Ntp3368
Rp3369
(dp3370
g26
g35
sg28
g3365
sg29
g3369
sg30
(lp3371
g0
(g22
g2
Ntp3372
Rp3373
(dp3374
g26
g40
sg28
g3369
sg29
g0
(g22
g2
Ntp3375
Rp3376
g3374
bsg30
(lp3377
g0
(g22
g2
Ntp3378
Rp3379
(dp3380
g26
g45
sg28
g3373
sg29
g3379
sg30
(lp3381
g0
(g22
g2
Ntp3382
Rp3383
(dp3384
g26
g114
sg28
g3379
sg29
g3383
sg30
Nsg51
g52
sg53
Nsbag0
(g22
g2
Ntp3385
Rp3386
(dp3387
g26
g83
sg28
g3379
sg29
g3386
sg30
(lp3388
g0
(g22
g2
Ntp3389
Rp3390
(dp3391
g26
g50
sg28
g3386
sg29
g3390
sg30
Nsg51
g52
sg53
Nsbasg51
g88
sg53
Nsbasg51
g88
sg53
Nsbasg51
g89
sg53
Nsbasg51
g90
sg53
Nsbasg51
g91
sg53
Nsbsg92
F-1708.2600533518942
sg93
g94
sg172
Nsg29
g174
sg61
Nsg195
g196
((dp3392
g50
I251
sg114
I261
stp3393
Rp3394
sg200
F-6.1862086239004945
sg201
F1.0
sg202
g203
sg206
Nsg204
g205
sg207
I50
sbsbag0
(g8
g2
Ntp3395
Rp3396
(dp3397
g12
F-1711.5558902178984
sg13
g0
(g14
g2
Ntp3398
Rp3399
(dp3400
g18
F-1711.5558902178984
sg19
Nsg20
F1.0
sg21
g0
(g22
g2
Ntp3401
Rp3402
(dp3403
g26
g27
sg28
Nsg29
g3402
sg30
(lp3404
g0
(g22
g2
Ntp3405
Rp3406
(dp3407
g26
g35
sg28
g3402
sg29
g3406
sg30
(lp3408
g0
(g22
g2
Ntp3409
Rp3410
(dp3411
g26
g40
sg28
g3406
sg29
g3410
sg30
(lp3412
g0
(g22
g2
Ntp3413
Rp3414
(dp3415
g26
g83
sg28
g3410
sg29
g0
(g22
g2
Ntp3416
Rp3417
g3415
bsg30
(lp3418
g0
(g22
g2
Ntp3419
Rp3420
(dp3421
g26
g131
sg28
g3414
sg29
g3420
sg30
Nsg51
g52
sg53
Nsbasg51
g88
sg53
Nsbasg51
g89
sg53
Nsbasg51
g90
sg53
Nsbasg51
g91
sg53
Nsbsg92
F-1708.2600533518942
sg93
g94
sg172
Nsg29
g174
sg61
Nsg195
g196
((dp3422
g131
I512
stp3423
Rp3424
sg200
F-3.295836866004329
sg201
F1.0
sg202
g203
sg206
Nsg204
g205
sg207
I50
sbsbag0
(g8
g2
Ntp3425
Rp3426
(dp3427
g12
F-1714.4462619757946
sg13
g0
(g14
g2
Ntp3428
Rp3429
(dp3430
g18
F-1714.4462619757946
sg19
Nsg20
F1.0
sg21
g0
(g22
g2
Ntp3431
Rp3432
(dp3433
g26
g27
sg28
Nsg29
g3432
sg30
(lp3434
g0
(g22
g2
Ntp3435
Rp3436
(dp3437
g26
g35
sg28
g3432
sg29
g3436
sg30
(lp3438
g0
(g22
g2
Ntp3439
Rp3440
(dp3441
g26
g40
sg28
g3436
sg29
g3440
sg30
(lp3442
g0
(g22
g2
Ntp3443
Rp3444
(dp3445
g26
g45
sg28
g3440
sg29
g0
(g22
g2
Ntp3446
Rp3447
g3445
bsg30
(lp3448
g0
(g22
g2
Ntp3449
Rp3450
(dp3451
g26
g79
sg28
g3444
sg29
g3450
sg30
Nsg51
g52
sg53
Nsbag0
(g22
g2
Ntp3452
Rp3453
(dp3454
g26
g83
sg28
g3444
sg29
g3453
sg30
(lp3455
g0
(g22
g2
Ntp3456
Rp3457
(dp3458
g26
g135
sg28
g3453
sg29
g3457
sg30
Nsg51
g52
sg53
Nsbasg51
g88
sg53
Nsbasg51
g88
sg53
Nsbasg51
g89
sg53
Nsbasg51
g90
sg53
Nsbasg51
g91
sg53
Nsbsg92
F-1708.2600533518942
sg93
g94
sg172
Nsg29
g174
sg61
Nsg195
g196
((dp3459
g135
I251
sg79
I261
stp3460
Rp3461
sg200
F-6.1862086239004945
sg201
F1.0
sg202
g203
sg206
Nsg204
g205
sg207
I50
sbsbag0
(g8
g2
Ntp3462
Rp3463
(dp3464
g12
F-1714.4462619757946
sg13
g0
(g14
g2
Ntp3465
Rp3466
(dp3467
g18
F-1714.4462619757946
sg19
Nsg20
F1.0
sg21
g0
(g22
g2
Ntp3468
Rp3469
(dp3470
g26
g27
sg28
Nsg29
g3469
sg30
(lp3471
g0
(g22
g2
Ntp3472
Rp3473
(dp3474
g26
g35
sg28
g3469
sg29
g3473
sg30
(lp3475
g0
(g22
g2
Ntp3476
Rp3477
(dp3478
g26
g40
sg28
g3473
sg29
g3477
sg30
(lp3479
g0
(g22
g2
Ntp3480
Rp3481
(dp3482
g26
g45
sg28
g3477
sg29
g0
(g22
g2
Ntp3483
Rp3484
g3482
bsg30
(lp3485
g0
(g22
g2
Ntp3486
Rp3487
(dp3488
g26
g131
sg28
g3481
sg29
g3487
sg30
Nsg51
g52
sg53
Nsbag0
(g22
g2
Ntp3489
Rp3490
(dp3491
g26
g83
sg28
g3481
sg29
g3490
sg30
(lp3492
g0
(g22
g2
Ntp3493
Rp3494
(dp3495
g26
g135
sg28
g3490
sg29
g3494
sg30
Nsg51
g52
sg53
Nsbasg51
g88
sg53
Nsbasg51
g88
sg53
Nsbasg51
g89
sg53
Nsbasg51
g90
sg53
Nsbasg51
g91
sg53
Nsbsg92
F-1708.2600533518942
sg93
g94
sg172
Nsg29
g174
sg61
Nsg195
g196
((dp3496
g135
I253
sg131
I259
stp3497
Rp3498
sg200
F-6.1862086239004945
sg201
F1.0
sg202
g203
sg206
Nsg204
g205
sg207
I50
sbsbag0
(g8
g2
Ntp3499
Rp3500
(dp3501
g12
F-1714.4462619757946
sg13
g0
(g14
g2
Ntp3502
Rp3503
(dp3504
g18
F-1714.4462619757946
sg19
Nsg20
F1.0
sg21
g0
(g22
g2
Ntp3505
Rp3506
(dp3507
g26
g27
sg28
Nsg29
g3506
sg30
(lp3508
g0
(g22
g2
Ntp3509
Rp3510
(dp3511
g26
g35
sg28
g3506
sg29
g3510
sg30
(lp3512
g0
(g22
g2
Ntp3513
Rp3514
(dp3515
g26
g40
sg28
g3510
sg29
g3514
sg30
(lp3516
g0
(g22
g2
Ntp3517
Rp3518
(dp3519
g26
g45
sg28
g3514
sg29
g0
(g22
g2
Ntp3520
Rp3521
g3519
bsg30
(lp3522
g0
(g22
g2
Ntp3523
Rp3524
(dp3525
g26
g61
sg28
g3518
sg29
g3524
sg30
Nsg51
g52
sg53
Nsbag0
(g22
g2
Ntp3526
Rp3527
(dp3528
g26
g83
sg28
g3518
sg29
g3527
sg30
(lp3529
g0
(g22
g2
Ntp3530
Rp3531
(dp3532
g26
g114
sg28
g3527
sg29
g3531
sg30
Nsg51
g52
sg53
Nsbasg51
g88
sg53
Nsbasg51
g88
sg53
Nsbasg51
g89
sg53
Nsbasg51
g90
sg53
Nsbasg51
g91
sg53
Nsbsg92
F-1708.2600533518942
sg93
g94
sg172
Nsg29
g174
sg61
Nsg195
g196
((dp3533
g114
I249
sg61
I263
stp3534
Rp3535
sg200
F-6.1862086239004945
sg201
F1.0
sg202
g203
sg206
Nsg204
g205
sg207
I50
sbsbag0
(g8
g2
Ntp3536
Rp3537
(dp3538
g12
F-1711.5558902178984
sg13
g0
(g14
g2
Ntp3539
Rp3540
(dp3541
g18
F-1711.5558902178984
sg19
Nsg20
F1.0
sg21
g0
(g22
g2
Ntp3542
Rp3543
(dp3544
g26
g27
sg28
Nsg29
g3543
sg30
(lp3545
g0
(g22
g2
Ntp3546
Rp3547
(dp3548
g26
g35
sg28
g3543
sg29
g3547
sg30
(lp3549
g0
(g22
g2
Ntp3550
Rp3551
(dp3552
g26
g40
sg28
g3547
sg29
g3551
sg30
(lp3553
g0
(g22
g2
Ntp3554
Rp3555
(dp3556
g26
g83
sg28
g3551
sg29
g0
(g22
g2
Ntp3557
Rp3558
g3556
bsg30
(lp3559
g0
(g22
g2
Ntp3560
Rp3561
(dp3562
g26
g61
sg28
g3555
sg29
g3561
sg30
Nsg51
g52
sg53
Nsbasg51
g88
sg53
Nsbasg51
g89
sg53
Nsbasg51
g90
sg53
Nsbasg51
g91
sg53
Nsbsg92
F-1708.2600533518942
sg93
g94
sg172
Nsg29
g174
sg61
Nsg195
g196
((dp3563
g61
I512
stp3564
Rp3565
sg200
F-3.295836866004329
sg201
F1.0
sg202
g203
sg206
Nsg204
g205
sg207
I50
sbsbag0
(g8
g2
Ntp3566
Rp3567
(dp3568
g12
F-1714.4462619757946
sg13
g0
(g14
g2
Ntp3569
Rp3570
(dp3571
g18
F-1714.4462619757946
sg19
Nsg20
F1.0
sg21
g0
(g22
g2
Ntp3572
Rp3573
(dp3574
g26
g27
sg28
Nsg29
g3573
sg30
(lp3575
g0
(g22
g2
Ntp3576
Rp3577
(dp3578
g26
g35
sg28
g3573
sg29
g3577
sg30
(lp3579
g0
(g22
g2
Ntp3580
Rp3581
(dp3582
g26
g40
sg28
g3577
sg29
g3581
sg30
(lp3583
g0
(g22
g2
Ntp3584
Rp3585
(dp3586
g26
g45
sg28
g3581
sg29
g3585
sg30
(lp3587
g0
(g22
g2
Ntp3588
Rp3589
(dp3590
g26
g135
sg28
g3585
sg29
g0
(g22
g2
Ntp3591
Rp3592
g3590
bsg30
Nsg51
g52
sg53
Nsbag0
(g22
g2
Ntp3593
Rp3594
(dp3595
g26
g83
sg28
g3585
sg29
g3594
sg30
(lp3596
g0
(g22
g2
Ntp3597
Rp3598
(dp3599
g26
g135
sg28
g3594
sg29
g3598
sg30
Nsg51
g52
sg53
Nsbasg51
g88
sg53
Nsbasg51
g88
sg53
Nsbasg51
g89
sg53
Nsbasg51
g90
sg53
Nsbasg51
g91
sg53
Nsbsg92
F-1708.2600533518942
sg93
g94
sg172
Nsg29
g174
sg61
Nsg195
g196
((dp3600
g135
I512
stp3601
Rp3602
sg200
F-6.1862086239004945
sg201
F1.0
sg202
g203
sg206
Nsg204
g205
sg207
I50
sbsbag0
(g8
g2
Ntp3603
Rp3604
(dp3605
g12
F-1714.4462619757946
sg13
g0
(g14
g2
Ntp3606
Rp3607
(dp3608
g18
F-1714.4462619757946
sg19
Nsg20
F1.0
sg21
g0
(g22
g2
Ntp3609
Rp3610
(dp3611
g26
g27
sg28
Nsg29
g3610
sg30
(lp3612
g0
(g22
g2
Ntp3613
Rp3614
(dp3615
g26
g35
sg28
g3610
sg29
g3614
sg30
(lp3616
g0
(g22
g2
Ntp3617
Rp3618
(dp3619
g26
g40
sg28
g3614
sg29
g3618
sg30
(lp3620
g0
(g22
g2
Ntp3621
Rp3622
(dp3623
g26
g45
sg28
g3618
sg29
g0
(g22
g2
Ntp3624
Rp3625
g3623
bsg30
(lp3626
g0
(g22
g2
Ntp3627
Rp3628
(dp3629
g26
g131
sg28
g3622
sg29
g3628
sg30
Nsg51
g52
sg53
Nsbag0
(g22
g2
Ntp3630
Rp3631
(dp3632
g26
g83
sg28
g3622
sg29
g3631
sg30
(lp3633
g0
(g22
g2
Ntp3634
Rp3635
(dp3636
g26
g114
sg28
g3631
sg29
g3635
sg30
Nsg51
g52
sg53
Nsbasg51
g88
sg53
Nsbasg51
g88
sg53
Nsbasg51
g89
sg53
Nsbasg51
g90
sg53
Nsbasg51
g91
sg53
Nsbsg92
F-1708.2600533518942
sg93
g94
sg172
Nsg29
g174
sg61
Nsg195
g196
((dp3637
g131
I279
sg114
I233
stp3638
Rp3639
sg200
F-6.1862086239004945
sg201
F1.0
sg202
g203
sg206
Nsg204
g205
sg207
I50
sbsbag0
(g8
g2
Ntp3640
Rp3641
(dp3642
g12
F-1714.4462619757946
sg13
g0
(g14
g2
Ntp3643
Rp3644
(dp3645
g18
F-1714.4462619757946
sg19
Nsg20
F1.0
sg21
g0
(g22
g2
Ntp3646
Rp3647
(dp3648
g26
g27
sg28
Nsg29
g3647
sg30
(lp3649
g0
(g22
g2
Ntp3650
Rp3651
(dp3652
g26
g35
sg28
g3647
sg29
g3651
sg30
(lp3653
g0
(g22
g2
Ntp3654
Rp3655
(dp3656
g26
g40
sg28
g3651
sg29
g3655
sg30
(lp3657
g0
(g22
g2
Ntp3658
Rp3659
(dp3660
g26
g45
sg28
g3655
sg29
g0
(g22
g2
Ntp3661
Rp3662
g3660
bsg30
(lp3663
g0
(g22
g2
Ntp3664
Rp3665
(dp3666
g26
g121
sg28
g3659
sg29
g3665
sg30
Nsg51
g52
sg53
Nsbag0
(g22
g2
Ntp3667
Rp3668
(dp3669
g26
g83
sg28
g3659
sg29
g3668
sg30
(lp3670
g0
(g22
g2
Ntp3671
Rp3672
(dp3673
g26
g114
sg28
g3668
sg29
g3672
sg30
Nsg51
g52
sg53
Nsbasg51
g88
sg53
Nsbasg51
g88
sg53
Nsbasg51
g89
sg53
Nsbasg51
g90
sg53
Nsbasg51
g91
sg53
Nsbsg92
F-1708.2600533518942
sg93
g94
sg172
Nsg29
g174
sg61
Nsg195
g196
((dp3674
g121
I235
sg114
I277
stp3675
Rp3676
sg200
F-6.1862086239004945
sg201
F1.0
sg202
g203
sg206
Nsg204
g205
sg207
I50
sbsbag0
(g8
g2
Ntp3677
Rp3678
(dp3679
g12
F-1711.5558902178984
sg13
g0
(g14
g2
Ntp3680
Rp3681
(dp3682
g18
F-1711.5558902178984
sg19
Nsg20
F1.0
sg21
g0
(g22
g2
Ntp3683
Rp3684
(dp3685
g26
g27
sg28
Nsg29
g3684
sg30
(lp3686
g0
(g22
g2
Ntp3687
Rp3688
(dp3689
g26
g35
sg28
g3684
sg29
g0
(g22
g2
Ntp3690
Rp3691
g3689
bsg30
(lp3692
g0
(g22
g2
Ntp3693
Rp3694
(dp3695
g26
g40
sg28
g3688
sg29
g3694
sg30
(lp3696
g0
(g22
g2
Ntp3697
Rp3698
(dp3699
g26
g83
sg28
g3694
sg29
g3698
sg30
(lp3700
g0
(g22
g2
Ntp3701
Rp3702
(dp3703
g26
g121
sg28
g3698
sg29
g3702
sg30
Nsg51
g52
sg53
Nsbasg51
g88
sg53
Nsbasg51
g89
sg53
Nsbasg51
g90
sg53
Nsbasg51
g91
sg53
Nsbsg92
F-1708.2600533518942
sg93
g94
sg172
Nsg29
g174
sg61
Nsg195
g196
((dp3704
g121
I512
stp3705
Rp3706
sg200
F-3.295836866004329
sg201
F1.0
sg202
g203
sg206
Nsg204
g205
sg207
I50
sbsbag0
(g8
g2
Ntp3707
Rp3708
(dp3709
g12
F-1714.4462619757946
sg13
g0
(g14
g2
Ntp3710
Rp3711
(dp3712
g18
F-1714.4462619757946
sg19
Nsg20
F1.0
sg21
g0
(g22
g2
Ntp3713
Rp3714
(dp3715
g26
g27
sg28
Nsg29
g3714
sg30
(lp3716
g0
(g22
g2
Ntp3717
Rp3718
(dp3719
g26
g35
sg28
g3714
sg29
g3718
sg30
(lp3720
g0
(g22
g2
Ntp3721
Rp3722
(dp3723
g26
g40
sg28
g3718
sg29
g3722
sg30
(lp3724
g0
(g22
g2
Ntp3725
Rp3726
(dp3727
g26
g45
sg28
g3722
sg29
g0
(g22
g2
Ntp3728
Rp3729
g3727
bsg30
(lp3730
g0
(g22
g2
Ntp3731
Rp3732
(dp3733
g26
g79
sg28
g3726
sg29
g3732
sg30
Nsg51
g52
sg53
Nsbag0
(g22
g2
Ntp3734
Rp3735
(dp3736
g26
g83
sg28
g3726
sg29
g3735
sg30
(lp3737
g0
(g22
g2
Ntp3738
Rp3739
(dp3740
g26
g50
sg28
g3735
sg29
g3739
sg30
Nsg51
g52
sg53
Nsbasg51
g88
sg53
Nsbasg51
g88
sg53
Nsbasg51
g89
sg53
Nsbasg51
g90
sg53
Nsbasg51
g91
sg53
Nsbsg92
F-1708.2600533518942
sg93
g94
sg172
Nsg29
g174
sg61
Nsg195
g196
((dp3741
g50
I258
sg79
I254
stp3742
Rp3743
sg200
F-6.1862086239004945
sg201
F1.0
sg202
g203
sg206
Nsg204
g205
sg207
I50
sbsbag0
(g8
g2
Ntp3744
Rp3745
(dp3746
g12
F-1711.5558902178984
sg13
g0
(g14
g2
Ntp3747
Rp3748
(dp3749
g18
F-1711.5558902178984
sg19
Nsg20
F1.0
sg21
g0
(g22
g2
Ntp3750
Rp3751
(dp3752
g26
g27
sg28
Nsg29
g3751
sg30
(lp3753
g0
(g22
g2
Ntp3754
Rp3755
(dp3756
g26
g35
sg28
g3751
sg29
g3755
sg30
(lp3757
g0
(g22
g2
Ntp3758
Rp3759
(dp3760
g26
g40
sg28
g3755
sg29
g3759
sg30
(lp3761
g0
(g22
g2
Ntp3762
Rp3763
(dp3764
g26
g83
sg28
g3759
sg29
g3763
sg30
(lp3765
g0
(g22
g2
Ntp3766
Rp3767
(dp3768
g26
g135
sg28
g3763
sg29
g0
(g22
g2
Ntp3769
Rp3770
g3768
bsg30
Nsg51
g52
sg53
Nsbasg51
g88
sg53
Nsbasg51
g89
sg53
Nsbasg51
g90
sg53
Nsbasg51
g91
sg53
Nsbsg92
F-1708.2600533518942
sg93
g94
sg172
Nsg29
g174
sg61
Nsg195
g196
((dp3771
g135
I512
stp3772
Rp3773
sg200
F-3.295836866004329
sg201
F1.0
sg202
g203
sg206
Nsg204
g205
sg207
I50
sbsbag0
(g8
g2
Ntp3774
Rp3775
(dp3776
g12
F-1714.4462619757946
sg13
g0
(g14
g2
Ntp3777
Rp3778
(dp3779
g18
F-1714.4462619757946
sg19
Nsg20
F1.0
sg21
g0
(g22
g2
Ntp3780
Rp3781
(dp3782
g26
g27
sg28
Nsg29
g0
(g22
g2
Ntp3783
Rp3784
g3782
bsg30
(lp3785
g0
(g22
g2
Ntp3786
Rp3787
(dp3788
g26
g35
sg28
g3781
sg29
g3787
sg30
(lp3789
g0
(g22
g2
Ntp3790
Rp3791
(dp3792
g26
g40
sg28
g3787
sg29
g3791
sg30
(lp3793
g0
(g22
g2
Ntp3794
Rp3795
(dp3796
g26
g45
sg28
g3791
sg29
g3795
sg30
(lp3797
g0
(g22
g2
Ntp3798
Rp3799
(dp3800
g26
g114
sg28
g3795
sg29
g3799
sg30
Nsg51
g52
sg53
Nsbag0
(g22
g2
Ntp3801
Rp3802
(dp3803
g26
g83
sg28
g3795
sg29
g3802
sg30
(lp3804
g0
(g22
g2
Ntp3805
Rp3806
(dp3807
g26
g108
sg28
g3802
sg29
g3806
sg30
Nsg51
g52
sg53
Nsbasg51
g88
sg53
Nsbasg51
g88
sg53
Nsbasg51
g89
sg53
Nsbasg51
g90
sg53
Nsbasg51
g91
sg53
Nsbsg92
F-1708.2600533518942
sg93
g94
sg172
Nsg29
g174
sg61
Nsg195
g196
((dp3808
g114
I261
sg108
I251
stp3809
Rp3810
sg200
F-6.1862086239004945
sg201
F1.0
sg202
g203
sg206
Nsg204
g205
sg207
I50
sbsbag0
(g8
g2
Ntp3811
Rp3812
(dp3813
g12
F-1711.5558902178984
sg13
g0
(g14
g2
Ntp3814
Rp3815
(dp3816
g18
F-1711.5558902178984
sg19
Nsg20
F1.0
sg21
g0
(g22
g2
Ntp3817
Rp3818
(dp3819
g26
g27
sg28
Nsg29
g3818
sg30
(lp3820
g0
(g22
g2
Ntp3821
Rp3822
(dp3823
g26
g35
sg28
g3818
sg29
g3822
sg30
(lp3824
g0
(g22
g2
Ntp3825
Rp3826
(dp3827
g26
g40
sg28
g3822
sg29
g3826
sg30
(lp3828
g0
(g22
g2
Ntp3829
Rp3830
(dp3831
g26
g83
sg28
g3826
sg29
g0
(g22
g2
Ntp3832
Rp3833
g3831
bsg30
(lp3834
g0
(g22
g2
Ntp3835
Rp3836
(dp3837
g26
g71
sg28
g3830
sg29
g3836
sg30
Nsg51
g52
sg53
Nsbasg51
g88
sg53
Nsbasg51
g89
sg53
Nsbasg51
g90
sg53
Nsbasg51
g91
sg53
Nsbsg92
F-1708.2600533518942
sg93
g94
sg172
Nsg29
g174
sg61
Nsg195
g196
((dp3838
g71
I512
stp3839
Rp3840
sg200
F-3.295836866004329
sg201
F1.0
sg202
g203
sg206
Nsg204
g205
sg207
I50
sbsbag0
(g8
g2
Ntp3841
Rp3842
(dp3843
g12
F-1717.3366337336909
sg13
g0
(g14
g2
Ntp3844
Rp3845
(dp3846
g18
F-1717.3366337336909
sg19
Nsg20
F1.0
sg21
g0
(g22
g2
Ntp3847
Rp3848
(dp3849
g26
g27
sg28
Nsg29
g3848
sg30
(lp3850
g0
(g22
g2
Ntp3851
Rp3852
(dp3853
g26
g35
sg28
g3848
sg29
g3852
sg30
(lp3854
g0
(g22
g2
Ntp3855
Rp3856
(dp3857
g26
g40
sg28
g3852
sg29
g3856
sg30
(lp3858
g0
(g22
g2
Ntp3859
Rp3860
(dp3861
g26
g45
sg28
g3856
sg29
g3860
sg30
(lp3862
g0
(g22
g2
Ntp3863
Rp3864
(dp3865
g26
g61
sg28
g3860
sg29
g3864
sg30
Nsg51
g52
sg53
Nsbag0
(g22
g2
Ntp3866
Rp3867
(dp3868
g26
g45
sg28
g3860
sg29
g0
(g22
g2
Ntp3869
Rp3870
g3868
bsg30
(lp3871
g0
(g22
g2
Ntp3872
Rp3873
(dp3874
g26
g108
sg28
g3867
sg29
g3873
sg30
Nsg51
g52
sg53
Nsbag0
(g22
g2
Ntp3875
Rp3876
(dp3877
g26
g83
sg28
g3867
sg29
g3876
sg30
(lp3878
g0
(g22
g2
Ntp3879
Rp3880
(dp3881
g26
g61
sg28
g3876
sg29
g3880
sg30
Nsg51
g52
sg53
Nsbasg51
g88
sg53
Nsbasg51
g88
sg53
Nsbasg51
g88
sg53
Nsbasg51
g89
sg53
Nsbasg51
g90
sg53
Nsbasg51
g91
sg53
Nsbsg92
F-1708.2600533518942
sg93
g94
sg172
Nsg29
g174
sg61
Nsg195
g196
((dp3882
g108
I153
sg61
I359
stp3883
Rp3884
sg200
F-9.076580381796658
sg201
F1.0
sg202
g203
sg206
Nsg204
g205
sg207
I50
sbsbag0
(g8
g2
Ntp3885
Rp3886
(dp3887
g12
F-1714.4462619757946
sg13
g0
(g14
g2
Ntp3888
Rp3889
(dp3890
g18
F-1714.4462619757946
sg19
Nsg20
F1.0
sg21
g0
(g22
g2
Ntp3891
Rp3892
(dp3893
g26
g27
sg28
Nsg29
g3892
sg30
(lp3894
g0
(g22
g2
Ntp3895
Rp3896
(dp3897
g26
g35
sg28
g3892
sg29
g3896
sg30
(lp3898
g0
(g22
g2
Ntp3899
Rp3900
(dp3901
g26
g40
sg28
g3896
sg29
g3900
sg30
(lp3902
g0
(g22
g2
Ntp3903
Rp3904
(dp3905
g26
g45
sg28
g3900
sg29
g3904
sg30
(lp3906
g0
(g22
g2
Ntp3907
Rp3908
(dp3909
g26
g108
sg28
g3904
sg29
g0
(g22
g2
Ntp3910
Rp3911
g3909
bsg30
Nsg51
g52
sg53
Nsbag0
(g22
g2
Ntp3912
Rp3913
(dp3914
g26
g83
sg28
g3904
sg29
g3913
sg30
(lp3915
g0
(g22
g2
Ntp3916
Rp3917
(dp3918
g26
g114
sg28
g3913
sg29
g3917
sg30
Nsg51
g52
sg53
Nsbasg51
g88
sg53
Nsbasg51
g88
sg53
Nsbasg51
g89
sg53
Nsbasg51
g90
sg53
Nsbasg51
g91
sg53
Nsbsg92
F-1708.2600533518942
sg93
g94
sg172
Nsg29
g174
sg61
Nsg195
g196
((dp3919
g114
I228
sg108
I284
stp3920
Rp3921
sg200
F-6.1862086239004945
sg201
F1.0
sg202
g203
sg206
Nsg204
g205
sg207
I50
sbsbag0
(g8
g2
Ntp3922
Rp3923
(dp3924
g12
F-1714.4462619757946
sg13
g0
(g14
g2
Ntp3925
Rp3926
(dp3927
g18
F-1714.4462619757946
sg19
Nsg20
F1.0
sg21
g0
(g22
g2
Ntp3928
Rp3929
(dp3930
g26
g27
sg28
Nsg29
g3929
sg30
(lp3931
g0
(g22
g2
Ntp3932
Rp3933
(dp3934
g26
g35
sg28
g3929
sg29
g3933
sg30
(lp3935
g0
(g22
g2
Ntp3936
Rp3937
(dp3938
g26
g40
sg28
g3933
sg29
g3937
sg30
(lp3939
g0
(g22
g2
Ntp3940
Rp3941
(dp3942
g26
g45
sg28
g3937
sg29
g3941
sg30
(lp3943
g0
(g22
g2
Ntp3944
Rp3945
(dp3946
g26
g121
sg28
g3941
sg29
g0
(g22
g2
Ntp3947
Rp3948
g3946
bsg30
Nsg51
g52
sg53
Nsbag0
(g22
g2
Ntp3949
Rp3950
(dp3951
g26
g83
sg28
g3941
sg29
g3950
sg30
(lp3952
g0
(g22
g2
Ntp3953
Rp3954
(dp3955
g26
g50
sg28
g3950
sg29
g3954
sg30
Nsg51
g52
sg53
Nsbasg51
g88
sg53
Nsbasg51
g88
sg53
Nsbasg51
g89
sg53
Nsbasg51
g90
sg53
Nsbasg51
g91
sg53
Nsbsg92
F-1708.2600533518942
sg93
g94
sg172
Nsg29
g174
sg61
Nsg195
g196
((dp3956
g121
I266
sg50
I246
stp3957
Rp3958
sg200
F-6.1862086239004945
sg201
F1.0
sg202
g203
sg206
Nsg204
g205
sg207
I50
sbsbag0
(g8
g2
Ntp3959
Rp3960
(dp3961
g12
F-1711.5558902178984
sg13
g0
(g14
g2
Ntp3962
Rp3963
(dp3964
g18
F-1711.5558902178984
sg19
Nsg20
F1.0
sg21
g0
(g22
g2
Ntp3965
Rp3966
(dp3967
g26
g27
sg28
Nsg29
g3966
sg30
(lp3968
g0
(g22
g2
Ntp3969
Rp3970
(dp3971
g26
g35
sg28
g3966
sg29
g3970
sg30
(lp3972
g0
(g22
g2
Ntp3973
Rp3974
(dp3975
g26
g40
sg28
g3970
sg29
g3974
sg30
(lp3976
g0
(g22
g2
Ntp3977
Rp3978
(dp3979
g26
g83
sg28
g3974
sg29
g0
(g22
g2
Ntp3980
Rp3981
g3979
bsg30
(lp3982
g0
(g22
g2
Ntp3983
Rp3984
(dp3985
g26
g50
sg28
g3978
sg29
g3984
sg30
Nsg51
g52
sg53
Nsbasg51
g88
sg53
Nsbasg51
g89
sg53
Nsbasg51
g90
sg53
Nsbasg51
g91
sg53
Nsbsg92
F-1708.2600533518942
sg93
g94
sg172
Nsg29
g174
sg61
Nsg195
g196
((dp3986
g50
I512
stp3987
Rp3988
sg200
F-3.295836866004329
sg201
F1.0
sg202
g203
sg206
Nsg204
g205
sg207
I50
sbsbag0
(g8
g2
Ntp3989
Rp3990
(dp3991
g12
F-1714.4462619757946
sg13
g0
(g14
g2
Ntp3992
Rp3993
(dp3994
g18
F-1714.4462619757946
sg19
Nsg20
F1.0
sg21
g0
(g22
g2
Ntp3995
Rp3996
(dp3997
g26
g27
sg28
Nsg29
g3996
sg30
(lp3998
g0
(g22
g2
Ntp3999
Rp4000
(dp4001
g26
g35
sg28
g3996
sg29
g4000
sg30
(lp4002
g0
(g22
g2
Ntp4003
Rp4004
(dp4005
g26
g40
sg28
g4000
sg29
g0
(g22
g2
Ntp4006
Rp4007
g4005
bsg30
(lp4008
g0
(g22
g2
Ntp4009
Rp4010
(dp4011
g26
g45
sg28
g4004
sg29
g4010
sg30
(lp4012
g0
(g22
g2
Ntp4013
Rp4014
(dp4015
g26
g135
sg28
g4010
sg29
g4014
sg30
Nsg51
g52
sg53
Nsbag0
(g22
g2
Ntp4016
Rp4017
(dp4018
g26
g83
sg28
g4010
sg29
g4017
sg30
(lp4019
g0
(g22
g2
Ntp4020
Rp4021
(dp4022
g26
g71
sg28
g4017
sg29
g4021
sg30
Nsg51
g52
sg53
Nsbasg51
g88
sg53
Nsbasg51
g88
sg53
Nsbasg51
g89
sg53
Nsbasg51
g90
sg53
Nsbasg51
g91
sg53
Nsbsg92
F-1708.2600533518942
sg93
g94
sg172
Nsg29
g174
sg61
Nsg195
g196
((dp4023
g135
I238
sg71
I274
stp4024
Rp4025
sg200
F-6.1862086239004945
sg201
F1.0
sg202
g203
sg206
Nsg204
g205
sg207
I50
sbsbag0
(g8
g2
Ntp4026
Rp4027
(dp4028
g12
F-1714.4462619757946
sg13
g0
(g14
g2
Ntp4029
Rp4030
(dp4031
g18
F-1714.4462619757946
sg19
Nsg20
F1.0
sg21
g0
(g22
g2
Ntp4032
Rp4033
(dp4034
g26
g27
sg28
Nsg29
g4033
sg30
(lp4035
g0
(g22
g2
Ntp4036
Rp4037
(dp4038
g26
g35
sg28
g4033
sg29
g4037
sg30
(lp4039
g0
(g22
g2
Ntp4040
Rp4041
(dp4042
g26
g40
sg28
g4037
sg29
g4041
sg30
(lp4043
g0
(g22
g2
Ntp4044
Rp4045
(dp4046
g26
g45
sg28
g4041
sg29
g0
(g22
g2
Ntp4047
Rp4048
g4046
bsg30
(lp4049
g0
(g22
g2
Ntp4050
Rp4051
(dp4052
g26
g114
sg28
g4045
sg29
g4051
sg30
Nsg51
g52
sg53
Nsbag0
(g22
g2
Ntp4053
Rp4054
(dp4055
g26
g83
sg28
g4045
sg29
g4054
sg30
(lp4056
g0
(g22
g2
Ntp4057
Rp4058
(dp4059
g26
g61
sg28
g4054
sg29
g4058
sg30
Nsg51
g52
sg53
Nsbasg51
g88
sg53
Nsbasg51
g88
sg53
Nsbasg51
g89
sg53
Nsbasg51
g90
sg53
Nsbasg51
g91
sg53
Nsbsg92
F-1708.2600533518942
sg93
g94
sg172
Nsg29
g174
sg61
Nsg195
g196
((dp4060
g114
I241
sg61
I271
stp4061
Rp4062
sg200
F-6.1862086239004945
sg201
F1.0
sg202
g203
sg206
Nsg204
g205
sg207
I50
sbsbag0
(g8
g2
Ntp4063
Rp4064
(dp4065
g12
F-1714.4462619757946
sg13
g0
(g14
g2
Ntp4066
Rp4067
(dp4068
g18
F-1714.4462619757946
sg19
Nsg20
F1.0
sg21
g0
(g22
g2
Ntp4069
Rp4070
(dp4071
g26
g27
sg28
Nsg29
g4070
sg30
(lp4072
g0
(g22
g2
Ntp4073
Rp4074
(dp4075
g26
g35
sg28
g4070
sg29
g4074
sg30
(lp4076
g0
(g22
g2
Ntp4077
Rp4078
(dp4079
g26
g40
sg28
g4074
sg29
g4078
sg30
(lp4080
g0
(g22
g2
Ntp4081
Rp4082
(dp4083
g26
g45
sg28
g4078
sg29
g4082
sg30
(lp4084
g0
(g22
g2
Ntp4085
Rp4086
(dp4087
g26
g114
sg28
g4082
sg29
g4086
sg30
Nsg51
g52
sg53
Nsbag0
(g22
g2
Ntp4088
Rp4089
(dp4090
g26
g83
sg28
g4082
sg29
g4089
sg30
(lp4091
g0
(g22
g2
Ntp4092
Rp4093
(dp4094
g26
g131
sg28
g4089
sg29
g0
(g22
g2
Ntp4095
Rp4096
g4094
bsg30
Nsg51
g52
sg53
Nsbasg51
g88
sg53
Nsbasg51
g88
sg53
Nsbasg51
g89
sg53
Nsbasg51
g90
sg53
Nsbasg51
g91
sg53
Nsbsg92
F-1708.2600533518942
sg93
g94
sg172
Nsg29
g174
sg61
Nsg195
g196
((dp4097
g131
I252
sg114
I260
stp4098
Rp4099
sg200
F-6.1862086239004945
sg201
F1.0
sg202
g203
sg206
Nsg204
g205
sg207
I50
sbsbag0
(g8
g2
Ntp4100
Rp4101
(dp4102
g12
F-1714.4462619757946
sg13
g0
(g14
g2
Ntp4103
Rp4104
(dp4105
g18
F-1714.4462619757946
sg19
Nsg20
F1.0
sg21
g0
(g22
g2
Ntp4106
Rp4107
(dp4108
g26
g27
sg28
Nsg29
g4107
sg30
(lp4109
g0
(g22
g2
Ntp4110
Rp4111
(dp4112
g26
g35
sg28
g4107
sg29
g0
(g22
g2
Ntp4113
Rp4114
g4112
bsg30
(lp4115
g0
(g22
g2
Ntp4116
Rp4117
(dp4118
g26
g40
sg28
g4111
sg29
g4117
sg30
(lp4119
g0
(g22
g2
Ntp4120
Rp4121
(dp4122
g26
g45
sg28
g4117
sg29
g4121
sg30
(lp4123
g0
(g22
g2
Ntp4124
Rp4125
(dp4126
g26
g61
sg28
g4121
sg29
g4125
sg30
Nsg51
g52
sg53
Nsbag0
(g22
g2
Ntp4127
Rp4128
(dp4129
g26
g83
sg28
g4121
sg29
g4128
sg30
(lp4130
g0
(g22
g2
Ntp4131
Rp4132
(dp4133
g26
g135
sg28
g4128
sg29
g4132
sg30
Nsg51
g52
sg53
Nsbasg51
g88
sg53
Nsbasg51
g88
sg53
Nsbasg51
g89
sg53
Nsbasg51
g90
sg53
Nsbasg51
g91
sg53
Nsbsg92
F-1708.2600533518942
sg93
g94
sg172
Nsg29
g174
sg61
Nsg195
g196
((dp4134
g135
I263
sg61
I249
stp4135
Rp4136
sg200
F-6.1862086239004945
sg201
F1.0
sg202
g203
sg206
Nsg204
g205
sg207
I50
sbsbag0
(g8
g2
Ntp4137
Rp4138
(dp4139
g12
F-1717.3366337336909
sg13
g0
(g14
g2
Ntp4140
Rp4141
(dp4142
g18
F-1717.3366337336909
sg19
Nsg20
F1.0
sg21
g0
(g22
g2
Ntp4143
Rp4144
(dp4145
g26
g27
sg28
Nsg29
g4144
sg30
(lp4146
g0
(g22
g2
Ntp4147
Rp4148
(dp4149
g26
g35
sg28
g4144
sg29
g4148
sg30
(lp4150
g0
(g22
g2
Ntp4151
Rp4152
(dp4153
g26
g40
sg28
g4148
sg29
g4152
sg30
(lp4154
g0
(g22
g2
Ntp4155
Rp4156
(dp4157
g26
g45
sg28
g4152
sg29
g4156
sg30
(lp4158
g0
(g22
g2
Ntp4159
Rp4160
(dp4161
g26
g79
sg28
g4156
sg29
g4160
sg30
Nsg51
g52
sg53
Nsbag0
(g22
g2
Ntp4162
Rp4163
(dp4164
g26
g45
sg28
g4156
sg29
g4163
sg30
(lp4165
g0
(g22
g2
Ntp4166
Rp4167
(dp4168
g26
g114
sg28
g4163
sg29
g4167
sg30
Nsg51
g52
sg53
Nsbag0
(g22
g2
Ntp4169
Rp4170
(dp4171
g26
g83
sg28
g4163
sg29
g4170
sg30
(lp4172
g0
(g22
g2
Ntp4173
Rp4174
(dp4175
g26
g131
sg28
g4170
sg29
g0
(g22
g2
Ntp4176
Rp4177
g4175
bsg30
Nsg51
g52
sg53
Nsbasg51
g88
sg53
Nsbasg51
g88
sg53
Nsbasg51
g88
sg53
Nsbasg51
g89
sg53
Nsbasg51
g90
sg53
Nsbasg51
g91
sg53
Nsbsg92
F-1708.2600533518942
sg93
g94
sg172
Nsg29
g174
sg61
Nsg195
g196
((dp4178
g131
I171
sg114
I160
sg79
I181
stp4179
Rp4180
sg200
F-9.076580381796658
sg201
F1.0
sg202
g203
sg206
Nsg204
g205
sg207
I50
sbsbag0
(g8
g2
Ntp4181
Rp4182
(dp4183
g12
F-1714.4462619757946
sg13
g0
(g14
g2
Ntp4184
Rp4185
(dp4186
g18
F-1714.4462619757946
sg19
Nsg20
F1.0
sg21
g0
(g22
g2
Ntp4187
Rp4188
(dp4189
g26
g27
sg28
Nsg29
g4188
sg30
(lp4190
g0
(g22
g2
Ntp4191
Rp4192
(dp4193
g26
g35
sg28
g4188
sg29
g4192
sg30
(lp4194
g0
(g22
g2
Ntp4195
Rp4196
(dp4197
g26
g40
sg28
g4192
sg29
g0
(g22
g2
Ntp4198
Rp4199
g4197
bsg30
(lp4200
g0
(g22
g2
Ntp4201
Rp4202
(dp4203
g26
g45
sg28
g4196
sg29
g4202
sg30
(lp4204
g0
(g22
g2
Ntp4205
Rp4206
(dp4207
g26
g131
sg28
g4202
sg29
g4206
sg30
Nsg51
g52
sg53
Nsbag0
(g22
g2
Ntp4208
Rp4209
(dp4210
g26
g83
sg28
g4202
sg29
g4209
sg30
(lp4211
g0
(g22
g2
Ntp4212
Rp4213
(dp4214
g26
g71
sg28
g4209
sg29
g4213
sg30
Nsg51
g52
sg53
Nsbasg51
g88
sg53
Nsbasg51
g88
sg53
Nsbasg51
g89
sg53
Nsbasg51
g90
sg53
Nsbasg51
g91
sg53
Nsbsg92
F-1708.2600533518942
sg93
g94
sg172
Nsg29
g174
sg61
Nsg195
g196
((dp4215
g131
I243
sg71
I269
stp4216
Rp4217
sg200
F-6.1862086239004945
sg201
F1.0
sg202
g203
sg206
Nsg204
g205
sg207
I50
sbsbag0
(g8
g2
Ntp4218
Rp4219
(dp4220
g12
F-1714.4462619757946
sg13
g0
(g14
g2
Ntp4221
Rp4222
(dp4223
g18
F-1714.4462619757946
sg19
Nsg20
F1.0
sg21
g0
(g22
g2
Ntp4224
Rp4225
(dp4226
g26
g27
sg28
Nsg29
g4225
sg30
(lp4227
g0
(g22
g2
Ntp4228
Rp4229
(dp4230
g26
g35
sg28
g4225
sg29
g4229
sg30
(lp4231
g0
(g22
g2
Ntp4232
Rp4233
(dp4234
g26
g40
sg28
g4229
sg29
g4233
sg30
(lp4235
g0
(g22
g2
Ntp4236
Rp4237
(dp4238
g26
g45
sg28
g4233
sg29
g4237
sg30
(lp4239
g0
(g22
g2
Ntp4240
Rp4241
(dp4242
g26
g131
sg28
g4237
sg29
g0
(g22
g2
Ntp4243
Rp4244
g4242
bsg30
Nsg51
g52
sg53
Nsbag0
(g22
g2
Ntp4245
Rp4246
(dp4247
g26
g83
sg28
g4237
sg29
g4246
sg30
(lp4248
g0
(g22
g2
Ntp4249
Rp4250
(dp4251
g26
g50
sg28
g4246
sg29
g4250
sg30
Nsg51
g52
sg53
Nsbasg51
g88
sg53
Nsbasg51
g88
sg53
Nsbasg51
g89
sg53
Nsbasg51
g90
sg53
Nsbasg51
g91
sg53
Nsbsg92
F-1708.2600533518942
sg93
g94
sg172
Nsg29
g174
sg61
Nsg195
g196
((dp4252
g50
I255
sg131
I257
stp4253
Rp4254
sg200
F-6.1862086239004945
sg201
F1.0
sg202
g203
sg206
Nsg204
g205
sg207
I50
sbsbag0
(g8
g2
Ntp4255
Rp4256
(dp4257
g12
F-1714.4462619757946
sg13
g0
(g14
g2
Ntp4258
Rp4259
(dp4260
g18
F-1714.4462619757946
sg19
Nsg20
F1.0
sg21
g0
(g22
g2
Ntp4261
Rp4262
(dp4263
g26
g27
sg28
Nsg29
g4262
sg30
(lp4264
g0
(g22
g2
Ntp4265
Rp4266
(dp4267
g26
g35
sg28
g4262
sg29
g4266
sg30
(lp4268
g0
(g22
g2
Ntp4269
Rp4270
(dp4271
g26
g40
sg28
g4266
sg29
g4270
sg30
(lp4272
g0
(g22
g2
Ntp4273
Rp4274
(dp4275
g26
g45
sg28
g4270
sg29
g4274
sg30
(lp4276
g0
(g22
g2
Ntp4277
Rp4278
(dp4279
g26
g79
sg28
g4274
sg29
g4278
sg30
Nsg51
g52
sg53
Nsbag0
(g22
g2
Ntp4280
Rp4281
(dp4282
g26
g83
sg28
g4274
sg29
g0
(g22
g2
Ntp4283
Rp4284
g4282
bsg30
(lp4285
g0
(g22
g2
Ntp4286
Rp4287
(dp4288
g26
g61
sg28
g4281
sg29
g4287
sg30
Nsg51
g52
sg53
Nsbasg51
g88
sg53
Nsbasg51
g88
sg53
Nsbasg51
g89
sg53
Nsbasg51
g90
sg53
Nsbasg51
g91
sg53
Nsbsg92
F-1708.2600533518942
sg93
g94
sg172
Nsg29
g174
sg61
Nsg195
g196
((dp4289
g79
I262
sg61
I250
stp4290
Rp4291
sg200
F-6.1862086239004945
sg201
F1.0
sg202
g203
sg206
Nsg204
g205
sg207
I50
sbsbag0
(g8
g2
Ntp4292
Rp4293
(dp4294
g12
F-1714.4462619757946
sg13
g0
(g14
g2
Ntp4295
Rp4296
(dp4297
g18
F-1714.4462619757946
sg19
Nsg20
F1.0
sg21
g0
(g22
g2
Ntp4298
Rp4299
(dp4300
g26
g27
sg28
Nsg29
g4299
sg30
(lp4301
g0
(g22
g2
Ntp4302
Rp4303
(dp4304
g26
g35
sg28
g4299
sg29
g4303
sg30
(lp4305
g0
(g22
g2
Ntp4306
Rp4307
(dp4308
g26
g40
sg28
g4303
sg29
g4307
sg30
(lp4309
g0
(g22
g2
Ntp4310
Rp4311
(dp4312
g26
g45
sg28
g4307
sg29
g4311
sg30
(lp4313
g0
(g22
g2
Ntp4314
Rp4315
(dp4316
g26
g79
sg28
g4311
sg29
g4315
sg30
Nsg51
g52
sg53
Nsbag0
(g22
g2
Ntp4317
Rp4318
(dp4319
g26
g83
sg28
g4311
sg29
g4318
sg30
(lp4320
g0
(g22
g2
Ntp4321
Rp4322
(dp4323
g26
g79
sg28
g4318
sg29
g0
(g22
g2
Ntp4324
Rp4325
g4323
bsg30
Nsg51
g52
sg53
Nsbasg51
g88
sg53
Nsbasg51
g88
sg53
Nsbasg51
g89
sg53
Nsbasg51
g90
sg53
Nsbasg51
g91
sg53
Nsbsg92
F-1708.2600533518942
sg93
g94
sg172
Nsg29
g174
sg61
Nsg195
g196
((dp4326
g79
I512
stp4327
Rp4328
sg200
F-6.1862086239004945
sg201
F1.0
sg202
g203
sg206
Nsg204
g205
sg207
I50
sbsbag0
(g8
g2
Ntp4329
Rp4330
(dp4331
g12
F-1714.4462619757946
sg13
g0
(g14
g2
Ntp4332
Rp4333
(dp4334
g18
F-1714.4462619757946
sg19
Nsg20
F1.0
sg21
g0
(g22
g2
Ntp4335
Rp4336
(dp4337
g26
g27
sg28
Nsg29
g4336
sg30
(lp4338
g0
(g22
g2
Ntp4339
Rp4340
(dp4341
g26
g35
sg28
g4336
sg29
g4340
sg30
(lp4342
g0
(g22
g2
Ntp4343
Rp4344
(dp4345
g26
g40
sg28
g4340
sg29
g4344
sg30
(lp4346
g0
(g22
g2
Ntp4347
Rp4348
(dp4349
g26
g45
sg28
g4344
sg29
g0
(g22
g2
Ntp4350
Rp4351
g4349
bsg30
(lp4352
g0
(g22
g2
Ntp4353
Rp4354
(dp4355
g26
g135
sg28
g4348
sg29
g4354
sg30
Nsg51
g52
sg53
Nsbag0
(g22
g2
Ntp4356
Rp4357
(dp4358
g26
g83
sg28
g4348
sg29
g4357
sg30
(lp4359
g0
(g22
g2
Ntp4360
Rp4361
(dp4362
g26
g114
sg28
g4357
sg29
g4361
sg30
Nsg51
g52
sg53
Nsbasg51
g88
sg53
Nsbasg51
g88
sg53
Nsbasg51
g89
sg53
Nsbasg51
g90
sg53
Nsbasg51
g91
sg53
Nsbsg92
F-1708.2600533518942
sg93
g94
sg172
Nsg29
g174
sg61
Nsg195
g196
((dp4363
g135
I265
sg114
I247
stp4364
Rp4365
sg200
F-6.1862086239004945
sg201
F1.0
sg202
g203
sg206
Nsg204
g205
sg207
I50
sbsbag0
(g8
g2
Ntp4366
Rp4367
(dp4368
g12
F-1714.4462619757946
sg13
g0
(g14
g2
Ntp4369
Rp4370
(dp4371
g18
F-1714.4462619757946
sg19
Nsg20
F1.0
sg21
g0
(g22
g2
Ntp4372
Rp4373
(dp4374
g26
g27
sg28
Nsg29
g4373
sg30
(lp4375
g0
(g22
g2
Ntp4376
Rp4377
(dp4378
g26
g35
sg28
g4373
sg29
g4377
sg30
(lp4379
g0
(g22
g2
Ntp4380
Rp4381
(dp4382
g26
g40
sg28
g4377
sg29
g4381
sg30
(lp4383
g0
(g22
g2
Ntp4384
Rp4385
(dp4386
g26
g45
sg28
g4381
sg29
g4385
sg30
(lp4387
g0
(g22
g2
Ntp4388
Rp4389
(dp4390
g26
g50
sg28
g4385
sg29
g4389
sg30
Nsg51
g52
sg53
Nsbag0
(g22
g2
Ntp4391
Rp4392
(dp4393
g26
g83
sg28
g4385
sg29
g0
(g22
g2
Ntp4394
Rp4395
g4393
bsg30
(lp4396
g0
(g22
g2
Ntp4397
Rp4398
(dp4399
g26
g121
sg28
g4392
sg29
g4398
sg30
Nsg51
g52
sg53
Nsbasg51
g88
sg53
Nsbasg51
g88
sg53
Nsbasg51
g89
sg53
Nsbasg51
g90
sg53
Nsbasg51
g91
sg53
Nsbsg92
F-1708.2600533518942
sg93
g94
sg172
Nsg29
g174
sg61
Nsg195
g196
((dp4400
g50
I241
sg121
I271
stp4401
Rp4402
sg200
F-6.1862086239004945
sg201
F1.0
sg202
g203
sg206
Nsg204
g205
sg207
I50
sbsbag0
(g8
g2
Ntp4403
Rp4404
(dp4405
g12
F-1714.4462619757946
sg13
g0
(g14
g2
Ntp4406
Rp4407
(dp4408
g18
F-1714.4462619757946
sg19
Nsg20
F1.0
sg21
g0
(g22
g2
Ntp4409
Rp4410
(dp4411
g26
g27
sg28
Nsg29
g4410
sg30
(lp4412
g0
(g22
g2
Ntp4413
Rp4414
(dp4415
g26
g35
sg28
g4410
sg29
g4414
sg30
(lp4416
g0
(g22
g2
Ntp4417
Rp4418
(dp4419
g26
g40
sg28
g4414
sg29
g4418
sg30
(lp4420
g0
(g22
g2
Ntp4421
Rp4422
(dp4423
g26
g45
sg28
g4418
sg29
g4422
sg30
(lp4424
g0
(g22
g2
Ntp4425
Rp4426
(dp4427
g26
g135
sg28
g4422
sg29
g0
(g22
g2
Ntp4428
Rp4429
g4427
bsg30
Nsg51
g52
sg53
Nsbag0
(g22
g2
Ntp4430
Rp4431
(dp4432
g26
g83
sg28
g4422
sg29
g4431
sg30
(lp4433
g0
(g22
g2
Ntp4434
Rp4435
(dp4436
g26
g121
sg28
g4431
sg29
g4435
sg30
Nsg51
g52
sg53
Nsbasg51
g88
sg53
Nsbasg51
g88
sg53
Nsbasg51
g89
sg53
Nsbasg51
g90
sg53
Nsbasg51
g91
sg53
Nsbsg92
F-1708.2600533518942
sg93
g94
sg172
Nsg29
g174
sg61
Nsg195
g196
((dp4437
g135
I248
sg121
I264
stp4438
Rp4439
sg200
F-6.1862086239004945
sg201
F1.0
sg202
g203
sg206
Nsg204
g205
sg207
I50
sbsbasS'unique_set'
p4440
c__builtin__
set
p4441
((lp4442
g1714
ag2459
ag2378
ag454
ag2415
ag3711
ag1839
ag3748
ag2341
ag1276
ag174
ag3815
ag1758
ag1926
ag3362
ag963
ag2952
ag2570
ag4141
ag4296
ag3778
ag2533
ag4030
ag273
ag1095
ag3248
ag1436
ag3993
ag1218
ag1473
ag4407
ag1889
ag3963
ag687
ag912
ag396
ag2145
ag2233
ag3288
ag4222
ag803
ag1656
ag2020
ag1802
ag331
ag2064
ag3845
ag1007
ag745
ag4104
ag3325
ag621
ag2908
ag4370
ag1051
ag1612
ag3144
ag3503
ag2189
ag4259
ag1385
ag2621
ag3926
ag2864
ag3100
ag3570
ag2291
ag4067
ag3174
ag861
ag3070
ag2790
ag3644
ag2989
ag3681
ag563
ag1160
ag1976
ag4333
ag3540
ag1568
ag2827
ag3429
ag3026
ag16
ag2108
ag3466
ag3399
ag3889
ag4185
ag1524
ag215
ag2702
ag2665
ag3607
ag1334
ag3211
ag512
ag2496
ag2746
atp4443
Rp4444
sS'key'
p4445
g18
sg79
I100
sb.