ccopy_reg
_reconstructor
p0
(cLOTlib.TopN
TopN
p1
c__builtin__
object
p2
Ntp3
Rp4
(dp5
S'Q'
p6
(lp7
g0
(cLOTlib.TopN
QueueItem
p8
g2
Ntp9
Rp10
(dp11
S'priority'
p12
F-1715.5732737389844
sS'item'
p13
g0
(c__main__
MyHypothesis
p14
g2
Ntp15
Rp16
(dp17
S'posterior_score'
p18
F-1715.5732737389844
sS'rules_vector'
p19
NsS'likelihood_temperature'
p20
F1.0
sS'value'
p21
g0
(cLOTlib.FunctionNode
FunctionNode
p22
g2
Ntp23
Rp24
(dp25
S'name'
p26
S'flatten2str'
p27
sS'parent'
p28
NsS'self'
p29
g24
sS'args'
p30
(lp31
g0
(g22
g2
Ntp32
Rp33
(dp34
g26
S'sample_'
p35
sg28
g24
sg29
g33
sg30
(lp36
g0
(g22
g2
Ntp37
Rp38
(dp39
g26
S'"%s"'
p40
sg28
g33
sg29
g38
sg30
(lp41
g0
(g22
g2
Ntp42
Rp43
(dp44
g26
S'%s%s'
p45
sg28
g38
sg29
g43
sg30
(lp46
g0
(g22
g2
Ntp47
Rp48
(dp49
g26
S'm'
p50
sg28
g43
sg29
g48
sg30
NsS'returntype'
p51
S'TERMINAL'
p52
sS'added_rule'
p53
Nsbag0
(g22
g2
Ntp54
Rp55
(dp56
g26
g45
sg28
g43
sg29
g55
sg30
(lp57
g0
(g22
g2
Ntp58
Rp59
(dp60
g26
S'b'
p61
sg28
g55
sg29
g0
(g22
g2
Ntp62
Rp63
g60
bsg30
Nsg51
g52
sg53
Nsbag0
(g22
g2
Ntp64
Rp65
(dp66
g26
S'%s'
p67
sg28
g55
sg29
g65
sg30
(lp68
g0
(g22
g2
Ntp69
Rp70
(dp71
g26
S'i'
p72
sg28
g65
sg29
g70
sg30
Nsg51
g52
sg53
Nsbasg51
S'STRING'
p73
sg53
Nsbasg51
g73
sg53
Nsbasg51
g73
sg53
Nsbasg51
S'SET'
p74
sg53
Nsbasg51
S'EXPR'
p75
sg53
Nsbasg51
S'START'
p76
sg53
NsbsS'likelihood'
p77
F-1708.2600533518942
sS'grammar'
p78
(iLOTlib.Grammar
Grammar
p79
(dp80
S'rules'
p81
ccollections
defaultdict
p82
(c__builtin__
list
p83
tp84
Rp85
g52
(lp86
g0
(cLOTlib.GrammarRule
GrammarRule
p87
g2
Ntp88
Rp89
(dp90
S'to'
p91
NsS'bv_prefix'
p92
Nsg26
g61
sS'p'
p93
F15.0
sg29
g89
sS'nt'
p94
g52
sbag0
(g87
g2
Ntp95
Rp96
(dp97
g91
Nsg92
Nsg26
g50
sg93
F15.0
sg29
g96
sg94
g52
sbag0
(g87
g2
Ntp98
Rp99
(dp100
g91
Nsg92
Nsg26
g93
sg93
F15.0
sg29
g99
sg94
g52
sbag0
(g87
g2
Ntp101
Rp102
(dp103
g91
Nsg92
Nsg26
g72
sg93
F15.0
sg29
g102
sg94
g52
sbag0
(g87
g2
Ntp104
Rp105
(dp106
g91
Nsg92
Nsg26
S'o'
p107
sg93
F15.0
sg29
g105
sg94
g52
sbasg76
(lp108
g0
(g87
g2
Ntp109
Rp110
(dp111
g91
(lp112
g75
asg92
Nsg26
g27
sg93
F1.0
sg29
g110
sg94
g76
sbasg74
(lp113
g0
(g87
g2
Ntp114
Rp115
(dp116
g91
(lp117
g73
asg92
Nsg26
g40
sg93
F1.0
sg29
g115
sg94
g74
sbasg73
(lp118
g0
(g87
g2
Ntp119
Rp120
(dp121
g91
(lp122
g52
ag73
asg92
Nsg26
g45
sg93
F1.0
sg29
g120
sg94
g73
sbag0
(g87
g2
Ntp123
Rp124
(dp125
g91
(lp126
g52
asg92
Nsg26
g67
sg93
F1.0
sg29
g124
sg94
g73
sbasg75
(lp127
g0
(g87
g2
Ntp128
Rp129
(dp130
g91
(lp131
g74
asg92
Nsg26
g35
sg93
F1.0
sg29
g129
sg94
g75
sbag0
(g87
g2
Ntp132
Rp133
(dp134
g91
(lp135
g75
ag75
asg92
Nsg26
S'cons_'
p136
sg93
F0.5
sg29
g133
sg94
g75
sbassg29
g79
sS'rule_count'
p137
I11
sS'start'
p138
g76
sS'BV_P'
p139
F10.0
sS'bv_count'
p140
I0
sbsS'stored_likelihood'
p141
Nsg29
g0
(g14
g2
Ntp142
Rp143
(dp144
g18
F-1714.7747660427667
sg19
Nsg20
F1.0
sg21
g0
(g22
g2
Ntp145
Rp146
(dp147
g26
g27
sg28
Nsg29
g146
sg30
(lp148
g0
(g22
g2
Ntp149
Rp150
(dp151
g26
g136
sg28
g146
sg29
g150
sg30
(lp152
g0
(g22
g2
Ntp153
Rp154
(dp155
g26
g35
sg28
g150
sg29
g154
sg30
(lp156
g0
(g22
g2
Ntp157
Rp158
(dp159
g26
g40
sg28
g154
sg29
g158
sg30
(lp160
g0
(g22
g2
Ntp161
Rp162
(dp163
g26
g67
sg28
g158
sg29
g162
sg30
(lp164
g0
(g22
g2
Ntp165
Rp166
(dp167
g26
g72
sg28
g162
sg29
g166
sg30
Nsg51
g52
sg53
Nsbasg51
g73
sg53
Nsbasg51
g74
sg53
Nsbasg51
g75
sg53
Nsbag0
(g22
g2
Ntp168
Rp169
(dp170
g26
g35
sg28
g150
sg29
g169
sg30
(lp171
g0
(g22
g2
Ntp172
Rp173
(dp174
g26
g40
sg28
g169
sg29
g173
sg30
(lp175
g0
(g22
g2
Ntp176
Rp177
(dp178
g26
g67
sg28
g173
sg29
g177
sg30
(lp179
g0
(g22
g2
Ntp180
Rp181
(dp182
g26
g107
sg28
g177
sg29
g181
sg30
Nsg51
g52
sg53
Nsbasg51
g73
sg53
Nsbasg51
g74
sg53
Nsbasg51
g75
sg53
Nsbasg51
g75
sg53
Nsbasg51
g76
sg53
Nsbsg77
F-1708.2600533518942
sg78
g79
sg141
Nsg29
g143
sS'f'
p183
NsS'll_counts'
p184
ccollections
Counter
p185
((dp186
S'i o'
p187
I512
stp188
Rp189
sS'prior'
p190
F-6.514712690872528
sS'prior_temperature'
p191
F1.0
sS'kwargs'
p192
(dp193
S'display'
p194
S'lambda : %s'
p195
ssS'fvalue'
p196
Nsg194
g195
sS'maxnodes'
p197
I50
sbsg183
Nsg184
g185
((dp198
g72
I178
sg61
I147
sg50
I187
stp199
Rp200
sg190
F-7.313220387090301
sg191
F1.0
sg192
g193
sg196
Nsg194
g195
sg197
I50
sbsbag0
(g8
g2
Ntp201
Rp202
(dp203
g12
F-1715.5732737389844
sg13
g0
(g14
g2
Ntp204
Rp205
(dp206
g18
F-1715.5732737389844
sg19
Nsg20
F1.0
sg21
g0
(g22
g2
Ntp207
Rp208
(dp209
g26
g27
sg28
Nsg29
g0
(g22
g2
Ntp210
Rp211
g209
bsg30
(lp212
g0
(g22
g2
Ntp213
Rp214
(dp215
g26
g35
sg28
g208
sg29
g214
sg30
(lp216
g0
(g22
g2
Ntp217
Rp218
(dp219
g26
g40
sg28
g214
sg29
g218
sg30
(lp220
g0
(g22
g2
Ntp221
Rp222
(dp223
g26
g45
sg28
g218
sg29
g222
sg30
(lp224
g0
(g22
g2
Ntp225
Rp226
(dp227
g26
g107
sg28
g222
sg29
g226
sg30
Nsg51
g52
sg53
Nsbag0
(g22
g2
Ntp228
Rp229
(dp230
g26
g45
sg28
g222
sg29
g229
sg30
(lp231
g0
(g22
g2
Ntp232
Rp233
(dp234
g26
g72
sg28
g229
sg29
g233
sg30
Nsg51
g52
sg53
Nsbag0
(g22
g2
Ntp235
Rp236
(dp237
g26
g67
sg28
g229
sg29
g236
sg30
(lp238
g0
(g22
g2
Ntp239
Rp240
(dp241
g26
g93
sg28
g236
sg29
g240
sg30
Nsg51
g52
sg53
Nsbasg51
g73
sg53
Nsbasg51
g73
sg53
Nsbasg51
g73
sg53
Nsbasg51
g74
sg53
Nsbasg51
g75
sg53
Nsbasg51
g76
sg53
Nsbsg77
F-1708.2600533518942
sg78
g79
sg141
Nsg29
g143
sg183
Nsg184
g185
((dp242
g72
I164
sg93
I178
sg107
I170
stp243
Rp244
sg190
F-7.313220387090301
sg191
F1.0
sg192
g193
sg196
Nsg194
g195
sg197
I50
sbsbag0
(g8
g2
Ntp245
Rp246
(dp247
g12
F-1714.7747660427667
sg13
g0
(g14
g2
Ntp248
Rp249
(dp250
g18
F-1714.7747660427667
sg19
Nsg20
F1.0
sg21
g0
(g22
g2
Ntp251
Rp252
(dp253
g26
g27
sg28
Nsg29
g252
sg30
(lp254
g0
(g22
g2
Ntp255
Rp256
(dp257
g26
g136
sg28
g252
sg29
g256
sg30
(lp258
g0
(g22
g2
Ntp259
Rp260
(dp261
g26
g35
sg28
g256
sg29
g260
sg30
(lp262
g0
(g22
g2
Ntp263
Rp264
(dp265
g26
g40
sg28
g260
sg29
g0
(g22
g2
Ntp266
Rp267
g265
bsg30
(lp268
g0
(g22
g2
Ntp269
Rp270
(dp271
g26
g67
sg28
g264
sg29
g270
sg30
(lp272
g0
(g22
g2
Ntp273
Rp274
(dp275
g26
g93
sg28
g270
sg29
g274
sg30
Nsg51
g52
sg53
Nsbasg51
g73
sg53
Nsbasg51
g74
sg53
Nsbasg51
g75
sg53
Nsbag0
(g22
g2
Ntp276
Rp277
(dp278
g26
g35
sg28
g256
sg29
g277
sg30
(lp279
g0
(g22
g2
Ntp280
Rp281
(dp282
g26
g40
sg28
g277
sg29
g281
sg30
(lp283
g0
(g22
g2
Ntp284
Rp285
(dp286
g26
g67
sg28
g281
sg29
g285
sg30
(lp287
g0
(g22
g2
Ntp288
Rp289
(dp290
g26
g61
sg28
g285
sg29
g289
sg30
Nsg51
g52
sg53
Nsbasg51
g73
sg53
Nsbasg51
g74
sg53
Nsbasg51
g75
sg53
Nsbasg51
g75
sg53
Nsbasg51
g76
sg53
Nsbsg77
F-1708.2600533518942
sg78
g79
sg141
Nsg29
g143
sg183
Nsg184
g185
((dp291
S'p b'
p292
I512
stp293
Rp294
sg190
F-6.514712690872528
sg191
F1.0
sg192
g193
sg196
Nsg194
g195
sg197
I50
sbsbag0
(g8
g2
Ntp295
Rp296
(dp297
g12
F-1715.5732737389844
sg13
g0
(g14
g2
Ntp298
Rp299
(dp300
g18
F-1715.5732737389844
sg19
Nsg20
F1.0
sg21
g0
(g22
g2
Ntp301
Rp302
(dp303
g26
g27
sg28
Nsg29
g302
sg30
(lp304
g0
(g22
g2
Ntp305
Rp306
(dp307
g26
g35
sg28
g302
sg29
g306
sg30
(lp308
g0
(g22
g2
Ntp309
Rp310
(dp311
g26
g40
sg28
g306
sg29
g0
(g22
g2
Ntp312
Rp313
g311
bsg30
(lp314
g0
(g22
g2
Ntp315
Rp316
(dp317
g26
g45
sg28
g310
sg29
g316
sg30
(lp318
g0
(g22
g2
Ntp319
Rp320
(dp321
g26
g107
sg28
g316
sg29
g320
sg30
Nsg51
g52
sg53
Nsbag0
(g22
g2
Ntp322
Rp323
(dp324
g26
g45
sg28
g316
sg29
g323
sg30
(lp325
g0
(g22
g2
Ntp326
Rp327
(dp328
g26
g72
sg28
g323
sg29
g327
sg30
Nsg51
g52
sg53
Nsbag0
(g22
g2
Ntp329
Rp330
(dp331
g26
g67
sg28
g323
sg29
g330
sg30
(lp332
g0
(g22
g2
Ntp333
Rp334
(dp335
g26
g72
sg28
g330
sg29
g334
sg30
Nsg51
g52
sg53
Nsbasg51
g73
sg53
Nsbasg51
g73
sg53
Nsbasg51
g73
sg53
Nsbasg51
g74
sg53
Nsbasg51
g75
sg53
Nsbasg51
g76
sg53
Nsbsg77
F-1708.2600533518942
sg78
g79
sg141
Nsg29
g143
sg183
Nsg184
g185
((dp336
g72
I363
sg107
I149
stp337
Rp338
sg190
F-7.313220387090301
sg191
F1.0
sg192
g193
sg196
Nsg194
g195
sg197
I50
sbsbag0
(g8
g2
Ntp339
Rp340
(dp341
g12
F-1715.5732737389844
sg13
g0
(g14
g2
Ntp342
Rp343
(dp344
g18
F-1715.5732737389844
sg19
Nsg20
F1.0
sg21
g0
(g22
g2
Ntp345
Rp346
(dp347
g26
g27
sg28
Nsg29
g346
sg30
(lp348
g0
(g22
g2
Ntp349
Rp350
(dp351
g26
g35
sg28
g346
sg29
g350
sg30
(lp352
g0
(g22
g2
Ntp353
Rp354
(dp355
g26
g40
sg28
g350
sg29
g354
sg30
(lp356
g0
(g22
g2
Ntp357
Rp358
(dp359
g26
g45
sg28
g354
sg29
g0
(g22
g2
Ntp360
Rp361
g359
bsg30
(lp362
g0
(g22
g2
Ntp363
Rp364
(dp365
g26
g72
sg28
g358
sg29
g364
sg30
Nsg51
g52
sg53
Nsbag0
(g22
g2
Ntp366
Rp367
(dp368
g26
g45
sg28
g358
sg29
g367
sg30
(lp369
g0
(g22
g2
Ntp370
Rp371
(dp372
g26
g61
sg28
g367
sg29
g371
sg30
Nsg51
g52
sg53
Nsbag0
(g22
g2
Ntp373
Rp374
(dp375
g26
g67
sg28
g367
sg29
g374
sg30
(lp376
g0
(g22
g2
Ntp377
Rp378
(dp379
g26
g61
sg28
g374
sg29
g378
sg30
Nsg51
g52
sg53
Nsbasg51
g73
sg53
Nsbasg51
g73
sg53
Nsbasg51
g73
sg53
Nsbasg51
g74
sg53
Nsbasg51
g75
sg53
Nsbasg51
g76
sg53
Nsbsg77
F-1708.2600533518942
sg78
g79
sg141
Nsg29
g143
sg183
Nsg184
g185
((dp380
g72
I142
sg61
I370
stp381
Rp382
sg190
F-7.313220387090301
sg191
F1.0
sg192
g193
sg196
Nsg194
g195
sg197
I50
sbsbag0
(g8
g2
Ntp383
Rp384
(dp385
g12
F-1714.7747660427667
sg13
g0
(g14
g2
Ntp386
Rp387
(dp388
g18
F-1714.7747660427667
sg19
Nsg20
F1.0
sg21
g0
(g22
g2
Ntp389
Rp390
(dp391
g26
g27
sg28
Nsg29
g390
sg30
(lp392
g0
(g22
g2
Ntp393
Rp394
(dp395
g26
g136
sg28
g390
sg29
g394
sg30
(lp396
g0
(g22
g2
Ntp397
Rp398
(dp399
g26
g35
sg28
g394
sg29
g398
sg30
(lp400
g0
(g22
g2
Ntp401
Rp402
(dp403
g26
g40
sg28
g398
sg29
g402
sg30
(lp404
g0
(g22
g2
Ntp405
Rp406
(dp407
g26
g67
sg28
g402
sg29
g0
(g22
g2
Ntp408
Rp409
g407
bsg30
(lp410
g0
(g22
g2
Ntp411
Rp412
(dp413
g26
g61
sg28
g406
sg29
g412
sg30
Nsg51
g52
sg53
Nsbasg51
g73
sg53
Nsbasg51
g74
sg53
Nsbasg51
g75
sg53
Nsbag0
(g22
g2
Ntp414
Rp415
(dp416
g26
g35
sg28
g394
sg29
g415
sg30
(lp417
g0
(g22
g2
Ntp418
Rp419
(dp420
g26
g40
sg28
g415
sg29
g419
sg30
(lp421
g0
(g22
g2
Ntp422
Rp423
(dp424
g26
g67
sg28
g419
sg29
g423
sg30
(lp425
g0
(g22
g2
Ntp426
Rp427
(dp428
g26
g61
sg28
g423
sg29
g427
sg30
Nsg51
g52
sg53
Nsbasg51
g73
sg53
Nsbasg51
g74
sg53
Nsbasg51
g75
sg53
Nsbasg51
g75
sg53
Nsbasg51
g76
sg53
Nsbsg77
F-1708.2600533518942
sg78
g79
sg141
Nsg29
g143
sg183
Nsg184
g185
((dp429
S'b b'
p430
I512
stp431
Rp432
sg190
F-6.514712690872528
sg191
F1.0
sg192
g193
sg196
Nsg194
g195
sg197
I50
sbsbag0
(g8
g2
Ntp433
Rp434
(dp435
g12
F-1714.7747660427667
sg13
g0
(g14
g2
Ntp436
Rp437
(dp438
g18
F-1714.7747660427667
sg19
Nsg20
F1.0
sg21
g0
(g22
g2
Ntp439
Rp440
(dp441
g26
g27
sg28
Nsg29
g440
sg30
(lp442
g0
(g22
g2
Ntp443
Rp444
(dp445
g26
g136
sg28
g440
sg29
g444
sg30
(lp446
g0
(g22
g2
Ntp447
Rp448
(dp449
g26
g35
sg28
g444
sg29
g448
sg30
(lp450
g0
(g22
g2
Ntp451
Rp452
(dp453
g26
g40
sg28
g448
sg29
g452
sg30
(lp454
g0
(g22
g2
Ntp455
Rp456
(dp457
g26
g67
sg28
g452
sg29
g456
sg30
(lp458
g0
(g22
g2
Ntp459
Rp460
(dp461
g26
g107
sg28
g456
sg29
g460
sg30
Nsg51
g52
sg53
Nsbasg51
g73
sg53
Nsbasg51
g74
sg53
Nsbasg51
g75
sg53
Nsbag0
(g22
g2
Ntp462
Rp463
(dp464
g26
g35
sg28
g444
sg29
g463
sg30
(lp465
g0
(g22
g2
Ntp466
Rp467
(dp468
g26
g40
sg28
g463
sg29
g0
(g22
g2
Ntp469
Rp470
g468
bsg30
(lp471
g0
(g22
g2
Ntp472
Rp473
(dp474
g26
g67
sg28
g467
sg29
g473
sg30
(lp475
g0
(g22
g2
Ntp476
Rp477
(dp478
g26
g72
sg28
g473
sg29
g477
sg30
Nsg51
g52
sg53
Nsbasg51
g73
sg53
Nsbasg51
g74
sg53
Nsbasg51
g75
sg53
Nsbasg51
g75
sg53
Nsbasg51
g76
sg53
Nsbsg77
F-1708.2600533518942
sg78
g79
sg141
Nsg29
g143
sg183
Nsg184
g185
((dp479
S'o i'
p480
I512
stp481
Rp482
sg190
F-6.514712690872528
sg191
F1.0
sg192
g193
sg196
Nsg194
g195
sg197
I50
sbsbag0
(g8
g2
Ntp483
Rp484
(dp485
g12
F-1715.5732737389844
sg13
g0
(g14
g2
Ntp486
Rp487
(dp488
g18
F-1715.5732737389844
sg19
Nsg20
F1.0
sg21
g0
(g22
g2
Ntp489
Rp490
(dp491
g26
g27
sg28
Nsg29
g490
sg30
(lp492
g0
(g22
g2
Ntp493
Rp494
(dp495
g26
g35
sg28
g490
sg29
g494
sg30
(lp496
g0
(g22
g2
Ntp497
Rp498
(dp499
g26
g40
sg28
g494
sg29
g498
sg30
(lp500
g0
(g22
g2
Ntp501
Rp502
(dp503
g26
g45
sg28
g498
sg29
g0
(g22
g2
Ntp504
Rp505
g503
bsg30
(lp506
g0
(g22
g2
Ntp507
Rp508
(dp509
g26
g50
sg28
g502
sg29
g508
sg30
Nsg51
g52
sg53
Nsbag0
(g22
g2
Ntp510
Rp511
(dp512
g26
g45
sg28
g502
sg29
g511
sg30
(lp513
g0
(g22
g2
Ntp514
Rp515
(dp516
g26
g50
sg28
g511
sg29
g515
sg30
Nsg51
g52
sg53
Nsbag0
(g22
g2
Ntp517
Rp518
(dp519
g26
g67
sg28
g511
sg29
g518
sg30
(lp520
g0
(g22
g2
Ntp521
Rp522
(dp523
g26
g72
sg28
g518
sg29
g522
sg30
Nsg51
g52
sg53
Nsbasg51
g73
sg53
Nsbasg51
g73
sg53
Nsbasg51
g73
sg53
Nsbasg51
g74
sg53
Nsbasg51
g75
sg53
Nsbasg51
g76
sg53
Nsbsg77
F-1708.2600533518942
sg78
g79
sg141
Nsg29
g143
sg183
Nsg184
g185
((dp524
g72
I187
sg50
I325
stp525
Rp526
sg190
F-7.313220387090301
sg191
F1.0
sg192
g193
sg196
Nsg194
g195
sg197
I50
sbsbag0
(g8
g2
Ntp527
Rp528
(dp529
g12
F-1715.5732737389844
sg13
g0
(g14
g2
Ntp530
Rp531
(dp532
g18
F-1715.5732737389844
sg19
Nsg20
F1.0
sg21
g0
(g22
g2
Ntp533
Rp534
(dp535
g26
g27
sg28
Nsg29
g534
sg30
(lp536
g0
(g22
g2
Ntp537
Rp538
(dp539
g26
g35
sg28
g534
sg29
g538
sg30
(lp540
g0
(g22
g2
Ntp541
Rp542
(dp543
g26
g40
sg28
g538
sg29
g542
sg30
(lp544
g0
(g22
g2
Ntp545
Rp546
(dp547
g26
g45
sg28
g542
sg29
g546
sg30
(lp548
g0
(g22
g2
Ntp549
Rp550
(dp551
g26
g61
sg28
g546
sg29
g0
(g22
g2
Ntp552
Rp553
g551
bsg30
Nsg51
g52
sg53
Nsbag0
(g22
g2
Ntp554
Rp555
(dp556
g26
g45
sg28
g546
sg29
g555
sg30
(lp557
g0
(g22
g2
Ntp558
Rp559
(dp560
g26
g61
sg28
g555
sg29
g559
sg30
Nsg51
g52
sg53
Nsbag0
(g22
g2
Ntp561
Rp562
(dp563
g26
g67
sg28
g555
sg29
g562
sg30
(lp564
g0
(g22
g2
Ntp565
Rp566
(dp567
g26
g50
sg28
g562
sg29
g566
sg30
Nsg51
g52
sg53
Nsbasg51
g73
sg53
Nsbasg51
g73
sg53
Nsbasg51
g73
sg53
Nsbasg51
g74
sg53
Nsbasg51
g75
sg53
Nsbasg51
g76
sg53
Nsbsg77
F-1708.2600533518942
sg78
g79
sg141
Nsg29
g143
sg183
Nsg184
g185
((dp568
g61
I315
sg50
I197
stp569
Rp570
sg190
F-7.313220387090301
sg191
F1.0
sg192
g193
sg196
Nsg194
g195
sg197
I50
sbsbag0
(g8
g2
Ntp571
Rp572
(dp573
g12
F-1715.5732737389844
sg13
g0
(g14
g2
Ntp574
Rp575
(dp576
g18
F-1715.5732737389844
sg19
Nsg20
F1.0
sg21
g0
(g22
g2
Ntp577
Rp578
(dp579
g26
g27
sg28
Nsg29
g578
sg30
(lp580
g0
(g22
g2
Ntp581
Rp582
(dp583
g26
g35
sg28
g578
sg29
g582
sg30
(lp584
g0
(g22
g2
Ntp585
Rp586
(dp587
g26
g40
sg28
g582
sg29
g586
sg30
(lp588
g0
(g22
g2
Ntp589
Rp590
(dp591
g26
g45
sg28
g586
sg29
g590
sg30
(lp592
g0
(g22
g2
Ntp593
Rp594
(dp595
g26
g50
sg28
g590
sg29
g0
(g22
g2
Ntp596
Rp597
g595
bsg30
Nsg51
g52
sg53
Nsbag0
(g22
g2
Ntp598
Rp599
(dp600
g26
g45
sg28
g590
sg29
g599
sg30
(lp601
g0
(g22
g2
Ntp602
Rp603
(dp604
g26
g50
sg28
g599
sg29
g603
sg30
Nsg51
g52
sg53
Nsbag0
(g22
g2
Ntp605
Rp606
(dp607
g26
g67
sg28
g599
sg29
g606
sg30
(lp608
g0
(g22
g2
Ntp609
Rp610
(dp611
g26
g50
sg28
g606
sg29
g610
sg30
Nsg51
g52
sg53
Nsbasg51
g73
sg53
Nsbasg51
g73
sg53
Nsbasg51
g73
sg53
Nsbasg51
g74
sg53
Nsbasg51
g75
sg53
Nsbasg51
g76
sg53
Nsbsg77
F-1708.2600533518942
sg78
g79
sg141
Nsg29
g143
sg183
Nsg184
g185
((dp612
g50
I512
stp613
Rp614
sg190
F-7.313220387090301
sg191
F1.0
sg192
g193
sg196
Nsg194
g195
sg197
I50
sbsbag0
(g8
g2
Ntp615
Rp616
(dp617
g12
F-1714.7747660427667
sg13
g0
(g14
g2
Ntp618
Rp619
(dp620
g18
F-1714.7747660427667
sg19
Nsg20
F1.0
sg21
g0
(g22
g2
Ntp621
Rp622
(dp623
g26
g27
sg28
Nsg29
g622
sg30
(lp624
g0
(g22
g2
Ntp625
Rp626
(dp627
g26
g136
sg28
g622
sg29
g626
sg30
(lp628
g0
(g22
g2
Ntp629
Rp630
(dp631
g26
g35
sg28
g626
sg29
g630
sg30
(lp632
g0
(g22
g2
Ntp633
Rp634
(dp635
g26
g40
sg28
g630
sg29
g634
sg30
(lp636
g0
(g22
g2
Ntp637
Rp638
(dp639
g26
g67
sg28
g634
sg29
g638
sg30
(lp640
g0
(g22
g2
Ntp641
Rp642
(dp643
g26
g50
sg28
g638
sg29
g642
sg30
Nsg51
g52
sg53
Nsbasg51
g73
sg53
Nsbasg51
g74
sg53
Nsbasg51
g75
sg53
Nsbag0
(g22
g2
Ntp644
Rp645
(dp646
g26
g35
sg28
g626
sg29
g645
sg30
(lp647
g0
(g22
g2
Ntp648
Rp649
(dp650
g26
g40
sg28
g645
sg29
g649
sg30
(lp651
g0
(g22
g2
Ntp652
Rp653
(dp654
g26
g67
sg28
g649
sg29
g653
sg30
(lp655
g0
(g22
g2
Ntp656
Rp657
(dp658
g26
g61
sg28
g653
sg29
g0
(g22
g2
Ntp659
Rp660
g658
bsg30
Nsg51
g52
sg53
Nsbasg51
g73
sg53
Nsbasg51
g74
sg53
Nsbasg51
g75
sg53
Nsbasg51
g75
sg53
Nsbasg51
g76
sg53
Nsbsg77
F-1708.2600533518942
sg78
g79
sg141
Nsg29
g143
sg183
Nsg184
g185
((dp661
S'm b'
p662
I512
stp663
Rp664
sg190
F-6.514712690872528
sg191
F1.0
sg192
g193
sg196
Nsg194
g195
sg197
I50
sbsbag0
(g8
g2
Ntp665
Rp666
(dp667
g12
F-1713.2706886459905
sg13
g0
(g14
g2
Ntp668
Rp669
(dp670
g18
F-1713.2706886459905
sg19
Nsg20
F1.0
sg21
g0
(g22
g2
Ntp671
Rp672
(dp673
g26
g27
sg28
Nsg29
g672
sg30
(lp674
g0
(g22
g2
Ntp675
Rp676
(dp677
g26
g35
sg28
g672
sg29
g676
sg30
(lp678
g0
(g22
g2
Ntp679
Rp680
(dp681
g26
g40
sg28
g676
sg29
g680
sg30
(lp682
g0
(g22
g2
Ntp683
Rp684
(dp685
g26
g45
sg28
g680
sg29
g0
(g22
g2
Ntp686
Rp687
g685
bsg30
(lp688
g0
(g22
g2
Ntp689
Rp690
(dp691
g26
g93
sg28
g684
sg29
g690
sg30
Nsg51
g52
sg53
Nsbag0
(g22
g2
Ntp692
Rp693
(dp694
g26
g67
sg28
g684
sg29
g693
sg30
(lp695
g0
(g22
g2
Ntp696
Rp697
(dp698
g26
g107
sg28
g693
sg29
g697
sg30
Nsg51
g52
sg53
Nsbasg51
g73
sg53
Nsbasg51
g73
sg53
Nsbasg51
g74
sg53
Nsbasg51
g75
sg53
Nsbasg51
g76
sg53
Nsbsg77
F-1708.2600533518942
sg78
g79
sg141
Nsg29
g143
sg183
Nsg184
g185
((dp699
g93
I262
sg107
I250
stp700
Rp701
sg190
F-5.0106352940962555
sg191
F1.0
sg192
g193
sg196
Nsg194
g195
sg197
I50
sbsbag0
(g8
g2
Ntp702
Rp703
(dp704
g12
F-1713.2706886459905
sg13
g0
(g14
g2
Ntp705
Rp706
(dp707
g18
F-1713.2706886459905
sg19
Nsg20
F1.0
sg21
g0
(g22
g2
Ntp708
Rp709
(dp710
g26
g27
sg28
Nsg29
g709
sg30
(lp711
g0
(g22
g2
Ntp712
Rp713
(dp714
g26
g35
sg28
g709
sg29
g713
sg30
(lp715
g0
(g22
g2
Ntp716
Rp717
(dp718
g26
g40
sg28
g713
sg29
g717
sg30
(lp719
g0
(g22
g2
Ntp720
Rp721
(dp722
g26
g45
sg28
g717
sg29
g721
sg30
(lp723
g0
(g22
g2
Ntp724
Rp725
(dp726
g26
g61
sg28
g721
sg29
g0
(g22
g2
Ntp727
Rp728
g726
bsg30
Nsg51
g52
sg53
Nsbag0
(g22
g2
Ntp729
Rp730
(dp731
g26
g67
sg28
g721
sg29
g730
sg30
(lp732
g0
(g22
g2
Ntp733
Rp734
(dp735
g26
g107
sg28
g730
sg29
g734
sg30
Nsg51
g52
sg53
Nsbasg51
g73
sg53
Nsbasg51
g73
sg53
Nsbasg51
g74
sg53
Nsbasg51
g75
sg53
Nsbasg51
g76
sg53
Nsbsg77
F-1708.2600533518942
sg78
g79
sg141
Nsg29
g143
sg183
Nsg184
g185
((dp736
g61
I253
sg107
I259
stp737
Rp738
sg190
F-5.0106352940962555
sg191
F1.0
sg192
g193
sg196
Nsg194
g195
sg197
I50
sbsbag0
(g8
g2
Ntp739
Rp740
(dp741
g12
F-1714.7747660427667
sg13
g0
(g14
g2
Ntp742
Rp743
(dp744
g18
F-1714.7747660427667
sg19
Nsg20
F1.0
sg21
g0
(g22
g2
Ntp745
Rp746
(dp747
g26
g27
sg28
Nsg29
g746
sg30
(lp748
g0
(g22
g2
Ntp749
Rp750
(dp751
g26
g136
sg28
g746
sg29
g0
(g22
g2
Ntp752
Rp753
g751
bsg30
(lp754
g0
(g22
g2
Ntp755
Rp756
(dp757
g26
g35
sg28
g750
sg29
g756
sg30
(lp758
g0
(g22
g2
Ntp759
Rp760
(dp761
g26
g40
sg28
g756
sg29
g760
sg30
(lp762
g0
(g22
g2
Ntp763
Rp764
(dp765
g26
g67
sg28
g760
sg29
g764
sg30
(lp766
g0
(g22
g2
Ntp767
Rp768
(dp769
g26
g107
sg28
g764
sg29
g768
sg30
Nsg51
g52
sg53
Nsbasg51
g73
sg53
Nsbasg51
g74
sg53
Nsbasg51
g75
sg53
Nsbag0
(g22
g2
Ntp770
Rp771
(dp772
g26
g35
sg28
g750
sg29
g771
sg30
(lp773
g0
(g22
g2
Ntp774
Rp775
(dp776
g26
g40
sg28
g771
sg29
g775
sg30
(lp777
g0
(g22
g2
Ntp778
Rp779
(dp780
g26
g67
sg28
g775
sg29
g779
sg30
(lp781
g0
(g22
g2
Ntp782
Rp783
(dp784
g26
g50
sg28
g779
sg29
g783
sg30
Nsg51
g52
sg53
Nsbasg51
g73
sg53
Nsbasg51
g74
sg53
Nsbasg51
g75
sg53
Nsbasg51
g75
sg53
Nsbasg51
g76
sg53
Nsbsg77
F-1708.2600533518942
sg78
g79
sg141
Nsg29
g143
sg183
Nsg184
g185
((dp785
S'o m'
p786
I512
stp787
Rp788
sg190
F-6.514712690872528
sg191
F1.0
sg192
g193
sg196
Nsg194
g195
sg197
I50
sbsbag0
(g8
g2
Ntp789
Rp790
(dp791
g12
F-1714.7747660427667
sg13
g0
(g14
g2
Ntp792
Rp793
(dp794
g18
F-1714.7747660427667
sg19
Nsg20
F1.0
sg21
g0
(g22
g2
Ntp795
Rp796
(dp797
g26
g27
sg28
Nsg29
g0
(g22
g2
Ntp798
Rp799
g797
bsg30
(lp800
g0
(g22
g2
Ntp801
Rp802
(dp803
g26
g136
sg28
g796
sg29
g802
sg30
(lp804
g0
(g22
g2
Ntp805
Rp806
(dp807
g26
g35
sg28
g802
sg29
g806
sg30
(lp808
g0
(g22
g2
Ntp809
Rp810
(dp811
g26
g40
sg28
g806
sg29
g810
sg30
(lp812
g0
(g22
g2
Ntp813
Rp814
(dp815
g26
g67
sg28
g810
sg29
g814
sg30
(lp816
g0
(g22
g2
Ntp817
Rp818
(dp819
g26
g93
sg28
g814
sg29
g818
sg30
Nsg51
g52
sg53
Nsbasg51
g73
sg53
Nsbasg51
g74
sg53
Nsbasg51
g75
sg53
Nsbag0
(g22
g2
Ntp820
Rp821
(dp822
g26
g35
sg28
g802
sg29
g821
sg30
(lp823
g0
(g22
g2
Ntp824
Rp825
(dp826
g26
g40
sg28
g821
sg29
g825
sg30
(lp827
g0
(g22
g2
Ntp828
Rp829
(dp830
g26
g67
sg28
g825
sg29
g829
sg30
(lp831
g0
(g22
g2
Ntp832
Rp833
(dp834
g26
g50
sg28
g829
sg29
g833
sg30
Nsg51
g52
sg53
Nsbasg51
g73
sg53
Nsbasg51
g74
sg53
Nsbasg51
g75
sg53
Nsbasg51
g75
sg53
Nsbasg51
g76
sg53
Nsbsg77
F-1708.2600533518942
sg78
g79
sg141
Nsg29
g143
sg183
Nsg184
g185
((dp835
S'p m'
p836
I512
stp837
Rp838
sg190
F-6.514712690872528
sg191
F1.0
sg192
g193
sg196
Nsg194
g195
sg197
I50
sbsbag0
(g8
g2
Ntp839
Rp840
(dp841
g12
F-1715.5732737389844
sg13
g0
(g14
g2
Ntp842
Rp843
(dp844
g18
F-1715.5732737389844
sg19
Nsg20
F1.0
sg21
g0
(g22
g2
Ntp845
Rp846
(dp847
g26
g27
sg28
Nsg29
g846
sg30
(lp848
g0
(g22
g2
Ntp849
Rp850
(dp851
g26
g35
sg28
g846
sg29
g850
sg30
(lp852
g0
(g22
g2
Ntp853
Rp854
(dp855
g26
g40
sg28
g850
sg29
g854
sg30
(lp856
g0
(g22
g2
Ntp857
Rp858
(dp859
g26
g45
sg28
g854
sg29
g858
sg30
(lp860
g0
(g22
g2
Ntp861
Rp862
(dp863
g26
g93
sg28
g858
sg29
g862
sg30
Nsg51
g52
sg53
Nsbag0
(g22
g2
Ntp864
Rp865
(dp866
g26
g45
sg28
g858
sg29
g0
(g22
g2
Ntp867
Rp868
g866
bsg30
(lp869
g0
(g22
g2
Ntp870
Rp871
(dp872
g26
g61
sg28
g865
sg29
g871
sg30
Nsg51
g52
sg53
Nsbag0
(g22
g2
Ntp873
Rp874
(dp875
g26
g67
sg28
g865
sg29
g874
sg30
(lp876
g0
(g22
g2
Ntp877
Rp878
(dp879
g26
g61
sg28
g874
sg29
g878
sg30
Nsg51
g52
sg53
Nsbasg51
g73
sg53
Nsbasg51
g73
sg53
Nsbasg51
g73
sg53
Nsbasg51
g74
sg53
Nsbasg51
g75
sg53
Nsbasg51
g76
sg53
Nsbsg77
F-1708.2600533518942
sg78
g79
sg141
Nsg29
g143
sg183
Nsg184
g185
((dp880
g93
I174
sg61
I338
stp881
Rp882
sg190
F-7.313220387090301
sg191
F1.0
sg192
g193
sg196
Nsg194
g195
sg197
I50
sbsbag0
(g8
g2
Ntp883
Rp884
(dp885
g12
F-1715.5732737389844
sg13
g0
(g14
g2
Ntp886
Rp887
(dp888
g18
F-1715.5732737389844
sg19
Nsg20
F1.0
sg21
g0
(g22
g2
Ntp889
Rp890
(dp891
g26
g27
sg28
Nsg29
g0
(g22
g2
Ntp892
Rp893
g891
bsg30
(lp894
g0
(g22
g2
Ntp895
Rp896
(dp897
g26
g35
sg28
g890
sg29
g896
sg30
(lp898
g0
(g22
g2
Ntp899
Rp900
(dp901
g26
g40
sg28
g896
sg29
g900
sg30
(lp902
g0
(g22
g2
Ntp903
Rp904
(dp905
g26
g45
sg28
g900
sg29
g904
sg30
(lp906
g0
(g22
g2
Ntp907
Rp908
(dp909
g26
g50
sg28
g904
sg29
g908
sg30
Nsg51
g52
sg53
Nsbag0
(g22
g2
Ntp910
Rp911
(dp912
g26
g45
sg28
g904
sg29
g911
sg30
(lp913
g0
(g22
g2
Ntp914
Rp915
(dp916
g26
g107
sg28
g911
sg29
g915
sg30
Nsg51
g52
sg53
Nsbag0
(g22
g2
Ntp917
Rp918
(dp919
g26
g67
sg28
g911
sg29
g918
sg30
(lp920
g0
(g22
g2
Ntp921
Rp922
(dp923
g26
g107
sg28
g918
sg29
g922
sg30
Nsg51
g52
sg53
Nsbasg51
g73
sg53
Nsbasg51
g73
sg53
Nsbasg51
g73
sg53
Nsbasg51
g74
sg53
Nsbasg51
g75
sg53
Nsbasg51
g76
sg53
Nsbsg77
F-1708.2600533518942
sg78
g79
sg141
Nsg29
g143
sg183
Nsg184
g185
((dp924
g50
I175
sg107
I337
stp925
Rp926
sg190
F-7.313220387090301
sg191
F1.0
sg192
g193
sg196
Nsg194
g195
sg197
I50
sbsbag0
(g8
g2
Ntp927
Rp928
(dp929
g12
F-1715.5732737389844
sg13
g0
(g14
g2
Ntp930
Rp931
(dp932
g18
F-1715.5732737389844
sg19
Nsg20
F1.0
sg21
g0
(g22
g2
Ntp933
Rp934
(dp935
g26
g27
sg28
Nsg29
g934
sg30
(lp936
g0
(g22
g2
Ntp937
Rp938
(dp939
g26
g35
sg28
g934
sg29
g938
sg30
(lp940
g0
(g22
g2
Ntp941
Rp942
(dp943
g26
g40
sg28
g938
sg29
g942
sg30
(lp944
g0
(g22
g2
Ntp945
Rp946
(dp947
g26
g45
sg28
g942
sg29
g946
sg30
(lp948
g0
(g22
g2
Ntp949
Rp950
(dp951
g26
g107
sg28
g946
sg29
g950
sg30
Nsg51
g52
sg53
Nsbag0
(g22
g2
Ntp952
Rp953
(dp954
g26
g45
sg28
g946
sg29
g953
sg30
(lp955
g0
(g22
g2
Ntp956
Rp957
(dp958
g26
g50
sg28
g953
sg29
g0
(g22
g2
Ntp959
Rp960
g958
bsg30
Nsg51
g52
sg53
Nsbag0
(g22
g2
Ntp961
Rp962
(dp963
g26
g67
sg28
g953
sg29
g962
sg30
(lp964
g0
(g22
g2
Ntp965
Rp966
(dp967
g26
g72
sg28
g962
sg29
g966
sg30
Nsg51
g52
sg53
Nsbasg51
g73
sg53
Nsbasg51
g73
sg53
Nsbasg51
g73
sg53
Nsbasg51
g74
sg53
Nsbasg51
g75
sg53
Nsbasg51
g76
sg53
Nsbsg77
F-1708.2600533518942
sg78
g79
sg141
Nsg29
g143
sg183
Nsg184
g185
((dp968
g72
I171
sg50
I172
sg107
I169
stp969
Rp970
sg190
F-7.313220387090301
sg191
F1.0
sg192
g193
sg196
Nsg194
g195
sg197
I50
sbsbag0
(g8
g2
Ntp971
Rp972
(dp973
g12
F-1715.5732737389844
sg13
g0
(g14
g2
Ntp974
Rp975
(dp976
g18
F-1715.5732737389844
sg19
Nsg20
F1.0
sg21
g0
(g22
g2
Ntp977
Rp978
(dp979
g26
g27
sg28
Nsg29
g978
sg30
(lp980
g0
(g22
g2
Ntp981
Rp982
(dp983
g26
g35
sg28
g978
sg29
g982
sg30
(lp984
g0
(g22
g2
Ntp985
Rp986
(dp987
g26
g40
sg28
g982
sg29
g986
sg30
(lp988
g0
(g22
g2
Ntp989
Rp990
(dp991
g26
g45
sg28
g986
sg29
g0
(g22
g2
Ntp992
Rp993
g991
bsg30
(lp994
g0
(g22
g2
Ntp995
Rp996
(dp997
g26
g72
sg28
g990
sg29
g996
sg30
Nsg51
g52
sg53
Nsbag0
(g22
g2
Ntp998
Rp999
(dp1000
g26
g45
sg28
g990
sg29
g999
sg30
(lp1001
g0
(g22
g2
Ntp1002
Rp1003
(dp1004
g26
g50
sg28
g999
sg29
g1003
sg30
Nsg51
g52
sg53
Nsbag0
(g22
g2
Ntp1005
Rp1006
(dp1007
g26
g67
sg28
g999
sg29
g1006
sg30
(lp1008
g0
(g22
g2
Ntp1009
Rp1010
(dp1011
g26
g61
sg28
g1006
sg29
g1010
sg30
Nsg51
g52
sg53
Nsbasg51
g73
sg53
Nsbasg51
g73
sg53
Nsbasg51
g73
sg53
Nsbasg51
g74
sg53
Nsbasg51
g75
sg53
Nsbasg51
g76
sg53
Nsbsg77
F-1708.2600533518942
sg78
g79
sg141
Nsg29
g143
sg183
Nsg184
g185
((dp1012
g72
I177
sg61
I142
sg50
I193
stp1013
Rp1014
sg190
F-7.313220387090301
sg191
F1.0
sg192
g193
sg196
Nsg194
g195
sg197
I50
sbsbag0
(g8
g2
Ntp1015
Rp1016
(dp1017
g12
F-1715.5732737389844
sg13
g0
(g14
g2
Ntp1018
Rp1019
(dp1020
g18
F-1715.5732737389844
sg19
Nsg20
F1.0
sg21
g0
(g22
g2
Ntp1021
Rp1022
(dp1023
g26
g27
sg28
Nsg29
g1022
sg30
(lp1024
g0
(g22
g2
Ntp1025
Rp1026
(dp1027
g26
g35
sg28
g1022
sg29
g1026
sg30
(lp1028
g0
(g22
g2
Ntp1029
Rp1030
(dp1031
g26
g40
sg28
g1026
sg29
g1030
sg30
(lp1032
g0
(g22
g2
Ntp1033
Rp1034
(dp1035
g26
g45
sg28
g1030
sg29
g0
(g22
g2
Ntp1036
Rp1037
g1035
bsg30
(lp1038
g0
(g22
g2
Ntp1039
Rp1040
(dp1041
g26
g93
sg28
g1034
sg29
g1040
sg30
Nsg51
g52
sg53
Nsbag0
(g22
g2
Ntp1042
Rp1043
(dp1044
g26
g45
sg28
g1034
sg29
g1043
sg30
(lp1045
g0
(g22
g2
Ntp1046
Rp1047
(dp1048
g26
g61
sg28
g1043
sg29
g1047
sg30
Nsg51
g52
sg53
Nsbag0
(g22
g2
Ntp1049
Rp1050
(dp1051
g26
g67
sg28
g1043
sg29
g1050
sg30
(lp1052
g0
(g22
g2
Ntp1053
Rp1054
(dp1055
g26
g72
sg28
g1050
sg29
g1054
sg30
Nsg51
g52
sg53
Nsbasg51
g73
sg53
Nsbasg51
g73
sg53
Nsbasg51
g73
sg53
Nsbasg51
g74
sg53
Nsbasg51
g75
sg53
Nsbasg51
g76
sg53
Nsbsg77
F-1708.2600533518942
sg78
g79
sg141
Nsg29
g143
sg183
Nsg184
g185
((dp1056
g72
I181
sg93
I177
sg61
I154
stp1057
Rp1058
sg190
F-7.313220387090301
sg191
F1.0
sg192
g193
sg196
Nsg194
g195
sg197
I50
sbsbag0
(g8
g2
Ntp1059
Rp1060
(dp1061
g12
F-1715.5732737389844
sg13
g0
(g14
g2
Ntp1062
Rp1063
(dp1064
g18
F-1715.5732737389844
sg19
Nsg20
F1.0
sg21
g0
(g22
g2
Ntp1065
Rp1066
(dp1067
g26
g27
sg28
Nsg29
g1066
sg30
(lp1068
g0
(g22
g2
Ntp1069
Rp1070
(dp1071
g26
g35
sg28
g1066
sg29
g0
(g22
g2
Ntp1072
Rp1073
g1071
bsg30
(lp1074
g0
(g22
g2
Ntp1075
Rp1076
(dp1077
g26
g40
sg28
g1070
sg29
g1076
sg30
(lp1078
g0
(g22
g2
Ntp1079
Rp1080
(dp1081
g26
g45
sg28
g1076
sg29
g1080
sg30
(lp1082
g0
(g22
g2
Ntp1083
Rp1084
(dp1085
g26
g107
sg28
g1080
sg29
g1084
sg30
Nsg51
g52
sg53
Nsbag0
(g22
g2
Ntp1086
Rp1087
(dp1088
g26
g45
sg28
g1080
sg29
g1087
sg30
(lp1089
g0
(g22
g2
Ntp1090
Rp1091
(dp1092
g26
g93
sg28
g1087
sg29
g1091
sg30
Nsg51
g52
sg53
Nsbag0
(g22
g2
Ntp1093
Rp1094
(dp1095
g26
g67
sg28
g1087
sg29
g1094
sg30
(lp1096
g0
(g22
g2
Ntp1097
Rp1098
(dp1099
g26
g72
sg28
g1094
sg29
g1098
sg30
Nsg51
g52
sg53
Nsbasg51
g73
sg53
Nsbasg51
g73
sg53
Nsbasg51
g73
sg53
Nsbasg51
g74
sg53
Nsbasg51
g75
sg53
Nsbasg51
g76
sg53
Nsbsg77
F-1708.2600533518942
sg78
g79
sg141
Nsg29
g143
sg183
Nsg184
g185
((dp1100
g72
I174
sg93
I173
sg107
I165
stp1101
Rp1102
sg190
F-7.313220387090301
sg191
F1.0
sg192
g193
sg196
Nsg194
g195
sg197
I50
sbsbag0
(g8
g2
Ntp1103
Rp1104
(dp1105
g12
F-1714.7747660427667
sg13
g0
(g14
g2
Ntp1106
Rp1107
(dp1108
g18
F-1714.7747660427667
sg19
Nsg20
F1.0
sg21
g0
(g22
g2
Ntp1109
Rp1110
(dp1111
g26
g27
sg28
Nsg29
g1110
sg30
(lp1112
g0
(g22
g2
Ntp1113
Rp1114
(dp1115
g26
g136
sg28
g1110
sg29
g1114
sg30
(lp1116
g0
(g22
g2
Ntp1117
Rp1118
(dp1119
g26
g35
sg28
g1114
sg29
g1118
sg30
(lp1120
g0
(g22
g2
Ntp1121
Rp1122
(dp1123
g26
g40
sg28
g1118
sg29
g0
(g22
g2
Ntp1124
Rp1125
g1123
bsg30
(lp1126
g0
(g22
g2
Ntp1127
Rp1128
(dp1129
g26
g67
sg28
g1122
sg29
g1128
sg30
(lp1130
g0
(g22
g2
Ntp1131
Rp1132
(dp1133
g26
g50
sg28
g1128
sg29
g1132
sg30
Nsg51
g52
sg53
Nsbasg51
g73
sg53
Nsbasg51
g74
sg53
Nsbasg51
g75
sg53
Nsbag0
(g22
g2
Ntp1134
Rp1135
(dp1136
g26
g35
sg28
g1114
sg29
g1135
sg30
(lp1137
g0
(g22
g2
Ntp1138
Rp1139
(dp1140
g26
g40
sg28
g1135
sg29
g1139
sg30
(lp1141
g0
(g22
g2
Ntp1142
Rp1143
(dp1144
g26
g67
sg28
g1139
sg29
g1143
sg30
(lp1145
g0
(g22
g2
Ntp1146
Rp1147
(dp1148
g26
g107
sg28
g1143
sg29
g1147
sg30
Nsg51
g52
sg53
Nsbasg51
g73
sg53
Nsbasg51
g74
sg53
Nsbasg51
g75
sg53
Nsbasg51
g75
sg53
Nsbasg51
g76
sg53
Nsbsg77
F-1708.2600533518942
sg78
g79
sg141
Nsg29
g143
sg183
Nsg184
g185
((dp1149
S'm o'
p1150
I512
stp1151
Rp1152
sg190
F-6.514712690872528
sg191
F1.0
sg192
g193
sg196
Nsg194
g195
sg197
I50
sbsbag0
(g8
g2
Ntp1153
Rp1154
(dp1155
g12
F-1713.2706886459905
sg13
g0
(g14
g2
Ntp1156
Rp1157
(dp1158
g18
F-1713.2706886459905
sg19
Nsg20
F1.0
sg21
g0
(g22
g2
Ntp1159
Rp1160
(dp1161
g26
g27
sg28
Nsg29
g1160
sg30
(lp1162
g0
(g22
g2
Ntp1163
Rp1164
(dp1165
g26
g35
sg28
g1160
sg29
g1164
sg30
(lp1166
g0
(g22
g2
Ntp1167
Rp1168
(dp1169
g26
g40
sg28
g1164
sg29
g1168
sg30
(lp1170
g0
(g22
g2
Ntp1171
Rp1172
(dp1173
g26
g45
sg28
g1168
sg29
g1172
sg30
(lp1174
g0
(g22
g2
Ntp1175
Rp1176
(dp1177
g26
g72
sg28
g1172
sg29
g1176
sg30
Nsg51
g52
sg53
Nsbag0
(g22
g2
Ntp1178
Rp1179
(dp1180
g26
g67
sg28
g1172
sg29
g1179
sg30
(lp1181
g0
(g22
g2
Ntp1182
Rp1183
(dp1184
g26
g107
sg28
g1179
sg29
g0
(g22
g2
Ntp1185
Rp1186
g1184
bsg30
Nsg51
g52
sg53
Nsbasg51
g73
sg53
Nsbasg51
g73
sg53
Nsbasg51
g74
sg53
Nsbasg51
g75
sg53
Nsbasg51
g76
sg53
Nsbsg77
F-1708.2600533518942
sg78
g79
sg141
Nsg29
g143
sg183
Nsg184
g185
((dp1187
g72
I267
sg107
I245
stp1188
Rp1189
sg190
F-5.0106352940962555
sg191
F1.0
sg192
g193
sg196
Nsg194
g195
sg197
I50
sbsbag0
(g8
g2
Ntp1190
Rp1191
(dp1192
g12
F-1713.2706886459905
sg13
g0
(g14
g2
Ntp1193
Rp1194
(dp1195
g18
F-1713.2706886459905
sg19
Nsg20
F1.0
sg21
g0
(g22
g2
Ntp1196
Rp1197
(dp1198
g26
g27
sg28
Nsg29
g1197
sg30
(lp1199
g0
(g22
g2
Ntp1200
Rp1201
(dp1202
g26
g35
sg28
g1197
sg29
g1201
sg30
(lp1203
g0
(g22
g2
Ntp1204
Rp1205
(dp1206
g26
g40
sg28
g1201
sg29
g1205
sg30
(lp1207
g0
(g22
g2
Ntp1208
Rp1209
(dp1210
g26
g45
sg28
g1205
sg29
g1209
sg30
(lp1211
g0
(g22
g2
Ntp1212
Rp1213
(dp1214
g26
g93
sg28
g1209
sg29
g1213
sg30
Nsg51
g52
sg53
Nsbag0
(g22
g2
Ntp1215
Rp1216
(dp1217
g26
g67
sg28
g1209
sg29
g1216
sg30
(lp1218
g0
(g22
g2
Ntp1219
Rp1220
(dp1221
g26
g61
sg28
g1216
sg29
g0
(g22
g2
Ntp1222
Rp1223
g1221
bsg30
Nsg51
g52
sg53
Nsbasg51
g73
sg53
Nsbasg51
g73
sg53
Nsbasg51
g74
sg53
Nsbasg51
g75
sg53
Nsbasg51
g76
sg53
Nsbsg77
F-1708.2600533518942
sg78
g79
sg141
Nsg29
g143
sg183
Nsg184
g185
((dp1224
g93
I270
sg61
I242
stp1225
Rp1226
sg190
F-5.0106352940962555
sg191
F1.0
sg192
g193
sg196
Nsg194
g195
sg197
I50
sbsbag0
(g8
g2
Ntp1227
Rp1228
(dp1229
g12
F-1713.2706886459905
sg13
g0
(g14
g2
Ntp1230
Rp1231
(dp1232
g18
F-1713.2706886459905
sg19
Nsg20
F1.0
sg21
g0
(g22
g2
Ntp1233
Rp1234
(dp1235
g26
g27
sg28
Nsg29
g1234
sg30
(lp1236
g0
(g22
g2
Ntp1237
Rp1238
(dp1239
g26
g35
sg28
g1234
sg29
g0
(g22
g2
Ntp1240
Rp1241
g1239
bsg30
(lp1242
g0
(g22
g2
Ntp1243
Rp1244
(dp1245
g26
g40
sg28
g1238
sg29
g1244
sg30
(lp1246
g0
(g22
g2
Ntp1247
Rp1248
(dp1249
g26
g45
sg28
g1244
sg29
g1248
sg30
(lp1250
g0
(g22
g2
Ntp1251
Rp1252
(dp1253
g26
g107
sg28
g1248
sg29
g1252
sg30
Nsg51
g52
sg53
Nsbag0
(g22
g2
Ntp1254
Rp1255
(dp1256
g26
g67
sg28
g1248
sg29
g1255
sg30
(lp1257
g0
(g22
g2
Ntp1258
Rp1259
(dp1260
g26
g93
sg28
g1255
sg29
g1259
sg30
Nsg51
g52
sg53
Nsbasg51
g73
sg53
Nsbasg51
g73
sg53
Nsbasg51
g74
sg53
Nsbasg51
g75
sg53
Nsbasg51
g76
sg53
Nsbsg77
F-1708.2600533518942
sg78
g79
sg141
Nsg29
g143
sg183
Nsg184
g185
((dp1261
g93
I251
sg107
I261
stp1262
Rp1263
sg190
F-5.0106352940962555
sg191
F1.0
sg192
g193
sg196
Nsg194
g195
sg197
I50
sbsbag0
(g8
g2
Ntp1264
Rp1265
(dp1266
g12
F-1713.2706886459905
sg13
g0
(g14
g2
Ntp1267
Rp1268
(dp1269
g18
F-1713.2706886459905
sg19
Nsg20
F1.0
sg21
g0
(g22
g2
Ntp1270
Rp1271
(dp1272
g26
g27
sg28
Nsg29
g1271
sg30
(lp1273
g0
(g22
g2
Ntp1274
Rp1275
(dp1276
g26
g35
sg28
g1271
sg29
g1275
sg30
(lp1277
g0
(g22
g2
Ntp1278
Rp1279
(dp1280
g26
g40
sg28
g1275
sg29
g1279
sg30
(lp1281
g0
(g22
g2
Ntp1282
Rp1283
(dp1284
g26
g45
sg28
g1279
sg29
g1283
sg30
(lp1285
g0
(g22
g2
Ntp1286
Rp1287
(dp1288
g26
g72
sg28
g1283
sg29
g1287
sg30
Nsg51
g52
sg53
Nsbag0
(g22
g2
Ntp1289
Rp1290
(dp1291
g26
g67
sg28
g1283
sg29
g1290
sg30
(lp1292
g0
(g22
g2
Ntp1293
Rp1294
(dp1295
g26
g61
sg28
g1290
sg29
g0
(g22
g2
Ntp1296
Rp1297
g1295
bsg30
Nsg51
g52
sg53
Nsbasg51
g73
sg53
Nsbasg51
g73
sg53
Nsbasg51
g74
sg53
Nsbasg51
g75
sg53
Nsbasg51
g76
sg53
Nsbsg77
F-1708.2600533518942
sg78
g79
sg141
Nsg29
g143
sg183
Nsg184
g185
((dp1298
g72
I242
sg61
I270
stp1299
Rp1300
sg190
F-5.0106352940962555
sg191
F1.0
sg192
g193
sg196
Nsg194
g195
sg197
I50
sbsbag0
(g8
g2
Ntp1301
Rp1302
(dp1303
g12
F-871.3786826652641
sg13
g0
(g14
g2
Ntp1304
Rp1305
(dp1306
g18
F-871.3786826652641
sg19
Nsg20
F1.0
sg21
g0
(g22
g2
Ntp1307
Rp1308
(dp1309
g26
g27
sg28
Nsg29
g1308
sg30
(lp1310
g0
(g22
g2
Ntp1311
Rp1312
(dp1313
g26
g136
sg28
g1308
sg29
g1312
sg30
(lp1314
g0
(g22
g2
Ntp1315
Rp1316
(dp1317
g26
g136
sg28
g1312
sg29
g1316
sg30
(lp1318
g0
(g22
g2
Ntp1319
Rp1320
(dp1321
g26
g35
sg28
g1316
sg29
g1320
sg30
(lp1322
g0
(g22
g2
Ntp1323
Rp1324
(dp1325
g26
g40
sg28
g1320
sg29
g1324
sg30
(lp1326
g0
(g22
g2
Ntp1327
Rp1328
(dp1329
g26
g45
sg28
g1324
sg29
g0
(g22
g2
Ntp1330
Rp1331
g1329
bsg30
(lp1332
g0
(g22
g2
Ntp1333
Rp1334
(dp1335
g26
g61
sg28
g1328
sg29
g1334
sg30
Nsg51
g52
sg53
Nsbag0
(g22
g2
Ntp1336
Rp1337
(dp1338
g26
g45
sg28
g1328
sg29
g1337
sg30
(lp1339
g0
(g22
g2
Ntp1340
Rp1341
(dp1342
g26
g61
sg28
g1337
sg29
g1341
sg30
Nsg51
g52
sg53
Nsbag0
(g22
g2
Ntp1343
Rp1344
(dp1345
g26
g67
sg28
g1337
sg29
g1344
sg30
(lp1346
g0
(g22
g2
Ntp1347
Rp1348
(dp1349
g26
g61
sg28
g1344
sg29
g1348
sg30
Nsg51
g52
sg53
Nsbasg51
g73
sg53
Nsbasg51
g73
sg53
Nsbasg51
g73
sg53
Nsbasg51
g74
sg53
Nsbasg51
g75
sg53
Nsbag0
(g22
g2
Ntp1350
Rp1351
(dp1352
g26
g35
sg28
g1316
sg29
g1351
sg30
(lp1353
g0
(g22
g2
Ntp1354
Rp1355
(dp1356
g26
g40
sg28
g1351
sg29
g1355
sg30
(lp1357
g0
(g22
g2
Ntp1358
Rp1359
(dp1360
g26
g45
sg28
g1355
sg29
g1359
sg30
(lp1361
g0
(g22
g2
Ntp1362
Rp1363
(dp1364
g26
g107
sg28
g1359
sg29
g1363
sg30
Nsg51
g52
sg53
Nsbag0
(g22
g2
Ntp1365
Rp1366
(dp1367
g26
g67
sg28
g1359
sg29
g1366
sg30
(lp1368
g0
(g22
g2
Ntp1369
Rp1370
(dp1371
g26
g107
sg28
g1366
sg29
g1370
sg30
Nsg51
g52
sg53
Nsbasg51
g73
sg53
Nsbasg51
g73
sg53
Nsbasg51
g74
sg53
Nsbasg51
g75
sg53
Nsbasg51
g75
sg53
Nsbag0
(g22
g2
Ntp1372
Rp1373
(dp1374
g26
g35
sg28
g1312
sg29
g1373
sg30
(lp1375
g0
(g22
g2
Ntp1376
Rp1377
(dp1378
g26
g40
sg28
g1373
sg29
g1377
sg30
(lp1379
g0
(g22
g2
Ntp1380
Rp1381
(dp1382
g26
g67
sg28
g1377
sg29
g1381
sg30
(lp1383
g0
(g22
g2
Ntp1384
Rp1385
(dp1386
g26
g93
sg28
g1381
sg29
g1385
sg30
Nsg51
g52
sg53
Nsbasg51
g73
sg53
Nsbasg51
g74
sg53
Nsbasg51
g75
sg53
Nsbasg51
g75
sg53
Nsbasg51
g76
sg53
Nsbsg77
F-854.1495522056391
sg78
g79
sg141
Nsg29
g143
sg183
Nsg184
g185
((dp1387
S'b o p'
p1388
I512
stp1389
Rp1390
sg190
F-17.229130459624987
sg191
F1.0
sg192
g193
sg196
Nsg194
g195
sg197
I50
sbsbag0
(g8
g2
Ntp1391
Rp1392
(dp1393
g12
F-1713.2706886459905
sg13
g0
(g14
g2
Ntp1394
Rp1395
(dp1396
g18
F-1713.2706886459905
sg19
Nsg20
F1.0
sg21
g0
(g22
g2
Ntp1397
Rp1398
(dp1399
g26
g27
sg28
Nsg29
g1398
sg30
(lp1400
g0
(g22
g2
Ntp1401
Rp1402
(dp1403
g26
g35
sg28
g1398
sg29
g1402
sg30
(lp1404
g0
(g22
g2
Ntp1405
Rp1406
(dp1407
g26
g40
sg28
g1402
sg29
g1406
sg30
(lp1408
g0
(g22
g2
Ntp1409
Rp1410
(dp1411
g26
g45
sg28
g1406
sg29
g0
(g22
g2
Ntp1412
Rp1413
g1411
bsg30
(lp1414
g0
(g22
g2
Ntp1415
Rp1416
(dp1417
g26
g93
sg28
g1410
sg29
g1416
sg30
Nsg51
g52
sg53
Nsbag0
(g22
g2
Ntp1418
Rp1419
(dp1420
g26
g67
sg28
g1410
sg29
g1419
sg30
(lp1421
g0
(g22
g2
Ntp1422
Rp1423
(dp1424
g26
g93
sg28
g1419
sg29
g1423
sg30
Nsg51
g52
sg53
Nsbasg51
g73
sg53
Nsbasg51
g73
sg53
Nsbasg51
g74
sg53
Nsbasg51
g75
sg53
Nsbasg51
g76
sg53
Nsbsg77
F-1708.2600533518942
sg78
g79
sg141
Nsg29
g143
sg183
Nsg184
g185
((dp1425
g93
I512
stp1426
Rp1427
sg190
F-5.0106352940962555
sg191
F1.0
sg192
g193
sg196
Nsg194
g195
sg197
I50
sbsbag0
(g8
g2
Ntp1428
Rp1429
(dp1430
g12
F-1714.7747660427667
sg13
g0
(g14
g2
Ntp1431
Rp1432
(dp1433
g18
F-1714.7747660427667
sg19
Nsg20
F1.0
sg21
g0
(g22
g2
Ntp1434
Rp1435
(dp1436
g26
g27
sg28
Nsg29
g1435
sg30
(lp1437
g0
(g22
g2
Ntp1438
Rp1439
(dp1440
g26
g136
sg28
g1435
sg29
g0
(g22
g2
Ntp1441
Rp1442
g1440
bsg30
(lp1443
g0
(g22
g2
Ntp1444
Rp1445
(dp1446
g26
g35
sg28
g1439
sg29
g1445
sg30
(lp1447
g0
(g22
g2
Ntp1448
Rp1449
(dp1450
g26
g40
sg28
g1445
sg29
g1449
sg30
(lp1451
g0
(g22
g2
Ntp1452
Rp1453
(dp1454
g26
g67
sg28
g1449
sg29
g1453
sg30
(lp1455
g0
(g22
g2
Ntp1456
Rp1457
(dp1458
g26
g93
sg28
g1453
sg29
g1457
sg30
Nsg51
g52
sg53
Nsbasg51
g73
sg53
Nsbasg51
g74
sg53
Nsbasg51
g75
sg53
Nsbag0
(g22
g2
Ntp1459
Rp1460
(dp1461
g26
g35
sg28
g1439
sg29
g1460
sg30
(lp1462
g0
(g22
g2
Ntp1463
Rp1464
(dp1465
g26
g40
sg28
g1460
sg29
g1464
sg30
(lp1466
g0
(g22
g2
Ntp1467
Rp1468
(dp1469
g26
g67
sg28
g1464
sg29
g1468
sg30
(lp1470
g0
(g22
g2
Ntp1471
Rp1472
(dp1473
g26
g107
sg28
g1468
sg29
g1472
sg30
Nsg51
g52
sg53
Nsbasg51
g73
sg53
Nsbasg51
g74
sg53
Nsbasg51
g75
sg53
Nsbasg51
g75
sg53
Nsbasg51
g76
sg53
Nsbsg77
F-1708.2600533518942
sg78
g79
sg141
Nsg29
g143
sg183
Nsg184
g185
((dp1474
S'p o'
p1475
I512
stp1476
Rp1477
sg190
F-6.514712690872528
sg191
F1.0
sg192
g193
sg196
Nsg194
g195
sg197
I50
sbsbag0
(g8
g2
Ntp1478
Rp1479
(dp1480
g12
F-1714.7747660427667
sg13
g0
(g14
g2
Ntp1481
Rp1482
(dp1483
g18
F-1714.7747660427667
sg19
Nsg20
F1.0
sg21
g0
(g22
g2
Ntp1484
Rp1485
(dp1486
g26
g27
sg28
Nsg29
g1485
sg30
(lp1487
g0
(g22
g2
Ntp1488
Rp1489
(dp1490
g26
g136
sg28
g1485
sg29
g1489
sg30
(lp1491
g0
(g22
g2
Ntp1492
Rp1493
(dp1494
g26
g35
sg28
g1489
sg29
g1493
sg30
(lp1495
g0
(g22
g2
Ntp1496
Rp1497
(dp1498
g26
g40
sg28
g1493
sg29
g1497
sg30
(lp1499
g0
(g22
g2
Ntp1500
Rp1501
(dp1502
g26
g67
sg28
g1497
sg29
g1501
sg30
(lp1503
g0
(g22
g2
Ntp1504
Rp1505
(dp1506
g26
g107
sg28
g1501
sg29
g1505
sg30
Nsg51
g52
sg53
Nsbasg51
g73
sg53
Nsbasg51
g74
sg53
Nsbasg51
g75
sg53
Nsbag0
(g22
g2
Ntp1507
Rp1508
(dp1509
g26
g35
sg28
g1489
sg29
g0
(g22
g2
Ntp1510
Rp1511
g1509
bsg30
(lp1512
g0
(g22
g2
Ntp1513
Rp1514
(dp1515
g26
g40
sg28
g1508
sg29
g1514
sg30
(lp1516
g0
(g22
g2
Ntp1517
Rp1518
(dp1519
g26
g67
sg28
g1514
sg29
g1518
sg30
(lp1520
g0
(g22
g2
Ntp1521
Rp1522
(dp1523
g26
g61
sg28
g1518
sg29
g1522
sg30
Nsg51
g52
sg53
Nsbasg51
g73
sg53
Nsbasg51
g74
sg53
Nsbasg51
g75
sg53
Nsbasg51
g75
sg53
Nsbasg51
g76
sg53
Nsbsg77
F-1708.2600533518942
sg78
g79
sg141
Nsg29
g143
sg183
Nsg184
g185
((dp1524
S'o b'
p1525
I512
stp1526
Rp1527
sg190
F-6.514712690872528
sg191
F1.0
sg192
g193
sg196
Nsg194
g195
sg197
I50
sbsbag0
(g8
g2
Ntp1528
Rp1529
(dp1530
g12
F-1713.2706886459905
sg13
g0
(g14
g2
Ntp1531
Rp1532
(dp1533
g18
F-1713.2706886459905
sg19
Nsg20
F1.0
sg21
g0
(g22
g2
Ntp1534
Rp1535
(dp1536
g26
g27
sg28
Nsg29
g1535
sg30
(lp1537
g0
(g22
g2
Ntp1538
Rp1539
(dp1540
g26
g35
sg28
g1535
sg29
g1539
sg30
(lp1541
g0
(g22
g2
Ntp1542
Rp1543
(dp1544
g26
g40
sg28
g1539
sg29
g1543
sg30
(lp1545
g0
(g22
g2
Ntp1546
Rp1547
(dp1548
g26
g45
sg28
g1543
sg29
g0
(g22
g2
Ntp1549
Rp1550
g1548
bsg30
(lp1551
g0
(g22
g2
Ntp1552
Rp1553
(dp1554
g26
g50
sg28
g1547
sg29
g1553
sg30
Nsg51
g52
sg53
Nsbag0
(g22
g2
Ntp1555
Rp1556
(dp1557
g26
g67
sg28
g1547
sg29
g1556
sg30
(lp1558
g0
(g22
g2
Ntp1559
Rp1560
(dp1561
g26
g107
sg28
g1556
sg29
g1560
sg30
Nsg51
g52
sg53
Nsbasg51
g73
sg53
Nsbasg51
g73
sg53
Nsbasg51
g74
sg53
Nsbasg51
g75
sg53
Nsbasg51
g76
sg53
Nsbsg77
F-1708.2600533518942
sg78
g79
sg141
Nsg29
g143
sg183
Nsg184
g185
((dp1562
g50
I240
sg107
I272
stp1563
Rp1564
sg190
F-5.0106352940962555
sg191
F1.0
sg192
g193
sg196
Nsg194
g195
sg197
I50
sbsbag0
(g8
g2
Ntp1565
Rp1566
(dp1567
g12
F-1715.5732737389844
sg13
g0
(g14
g2
Ntp1568
Rp1569
(dp1570
g18
F-1715.5732737389844
sg19
Nsg20
F1.0
sg21
g0
(g22
g2
Ntp1571
Rp1572
(dp1573
g26
g27
sg28
Nsg29
g1572
sg30
(lp1574
g0
(g22
g2
Ntp1575
Rp1576
(dp1577
g26
g35
sg28
g1572
sg29
g1576
sg30
(lp1578
g0
(g22
g2
Ntp1579
Rp1580
(dp1581
g26
g40
sg28
g1576
sg29
g1580
sg30
(lp1582
g0
(g22
g2
Ntp1583
Rp1584
(dp1585
g26
g45
sg28
g1580
sg29
g1584
sg30
(lp1586
g0
(g22
g2
Ntp1587
Rp1588
(dp1589
g26
g93
sg28
g1584
sg29
g1588
sg30
Nsg51
g52
sg53
Nsbag0
(g22
g2
Ntp1590
Rp1591
(dp1592
g26
g45
sg28
g1584
sg29
g1591
sg30
(lp1593
g0
(g22
g2
Ntp1594
Rp1595
(dp1596
g26
g50
sg28
g1591
sg29
g1595
sg30
Nsg51
g52
sg53
Nsbag0
(g22
g2
Ntp1597
Rp1598
(dp1599
g26
g67
sg28
g1591
sg29
g1598
sg30
(lp1600
g0
(g22
g2
Ntp1601
Rp1602
(dp1603
g26
g72
sg28
g1598
sg29
g0
(g22
g2
Ntp1604
Rp1605
g1603
bsg30
Nsg51
g52
sg53
Nsbasg51
g73
sg53
Nsbasg51
g73
sg53
Nsbasg51
g73
sg53
Nsbasg51
g74
sg53
Nsbasg51
g75
sg53
Nsbasg51
g76
sg53
Nsbsg77
F-1708.2600533518942
sg78
g79
sg141
Nsg29
g143
sg183
Nsg184
g185
((dp1606
g72
I166
sg93
I180
sg50
I166
stp1607
Rp1608
sg190
F-7.313220387090301
sg191
F1.0
sg192
g193
sg196
Nsg194
g195
sg197
I50
sbsbag0
(g8
g2
Ntp1609
Rp1610
(dp1611
g12
F-1715.5732737389844
sg13
g0
(g14
g2
Ntp1612
Rp1613
(dp1614
g18
F-1715.5732737389844
sg19
Nsg20
F1.0
sg21
g0
(g22
g2
Ntp1615
Rp1616
(dp1617
g26
g27
sg28
Nsg29
g1616
sg30
(lp1618
g0
(g22
g2
Ntp1619
Rp1620
(dp1621
g26
g35
sg28
g1616
sg29
g1620
sg30
(lp1622
g0
(g22
g2
Ntp1623
Rp1624
(dp1625
g26
g40
sg28
g1620
sg29
g1624
sg30
(lp1626
g0
(g22
g2
Ntp1627
Rp1628
(dp1629
g26
g45
sg28
g1624
sg29
g0
(g22
g2
Ntp1630
Rp1631
g1629
bsg30
(lp1632
g0
(g22
g2
Ntp1633
Rp1634
(dp1635
g26
g50
sg28
g1628
sg29
g1634
sg30
Nsg51
g52
sg53
Nsbag0
(g22
g2
Ntp1636
Rp1637
(dp1638
g26
g45
sg28
g1628
sg29
g1637
sg30
(lp1639
g0
(g22
g2
Ntp1640
Rp1641
(dp1642
g26
g61
sg28
g1637
sg29
g1641
sg30
Nsg51
g52
sg53
Nsbag0
(g22
g2
Ntp1643
Rp1644
(dp1645
g26
g67
sg28
g1637
sg29
g1644
sg30
(lp1646
g0
(g22
g2
Ntp1647
Rp1648
(dp1649
g26
g93
sg28
g1644
sg29
g1648
sg30
Nsg51
g52
sg53
Nsbasg51
g73
sg53
Nsbasg51
g73
sg53
Nsbasg51
g73
sg53
Nsbasg51
g74
sg53
Nsbasg51
g75
sg53
Nsbasg51
g76
sg53
Nsbsg77
F-1708.2600533518942
sg78
g79
sg141
Nsg29
g143
sg183
Nsg184
g185
((dp1650
g93
I186
sg61
I154
sg50
I172
stp1651
Rp1652
sg190
F-7.313220387090301
sg191
F1.0
sg192
g193
sg196
Nsg194
g195
sg197
I50
sbsbag0
(g8
g2
Ntp1653
Rp1654
(dp1655
g12
F-1714.7747660427667
sg13
g0
(g14
g2
Ntp1656
Rp1657
(dp1658
g18
F-1714.7747660427667
sg19
Nsg20
F1.0
sg21
g0
(g22
g2
Ntp1659
Rp1660
(dp1661
g26
g27
sg28
Nsg29
g1660
sg30
(lp1662
g0
(g22
g2
Ntp1663
Rp1664
(dp1665
g26
g136
sg28
g1660
sg29
g1664
sg30
(lp1666
g0
(g22
g2
Ntp1667
Rp1668
(dp1669
g26
g35
sg28
g1664
sg29
g1668
sg30
(lp1670
g0
(g22
g2
Ntp1671
Rp1672
(dp1673
g26
g40
sg28
g1668
sg29
g1672
sg30
(lp1674
g0
(g22
g2
Ntp1675
Rp1676
(dp1677
g26
g67
sg28
g1672
sg29
g1676
sg30
(lp1678
g0
(g22
g2
Ntp1679
Rp1680
(dp1681
g26
g61
sg28
g1676
sg29
g1680
sg30
Nsg51
g52
sg53
Nsbasg51
g73
sg53
Nsbasg51
g74
sg53
Nsbasg51
g75
sg53
Nsbag0
(g22
g2
Ntp1682
Rp1683
(dp1684
g26
g35
sg28
g1664
sg29
g1683
sg30
(lp1685
g0
(g22
g2
Ntp1686
Rp1687
(dp1688
g26
g40
sg28
g1683
sg29
g1687
sg30
(lp1689
g0
(g22
g2
Ntp1690
Rp1691
(dp1692
g26
g67
sg28
g1687
sg29
g1691
sg30
(lp1693
g0
(g22
g2
Ntp1694
Rp1695
(dp1696
g26
g93
sg28
g1691
sg29
g0
(g22
g2
Ntp1697
Rp1698
g1696
bsg30
Nsg51
g52
sg53
Nsbasg51
g73
sg53
Nsbasg51
g74
sg53
Nsbasg51
g75
sg53
Nsbasg51
g75
sg53
Nsbasg51
g76
sg53
Nsbsg77
F-1708.2600533518942
sg78
g79
sg141
Nsg29
g143
sg183
Nsg184
g185
((dp1699
S'b p'
p1700
I512
stp1701
Rp1702
sg190
F-6.514712690872528
sg191
F1.0
sg192
g193
sg196
Nsg194
g195
sg197
I50
sbsbag0
(g8
g2
Ntp1703
Rp1704
(dp1705
g12
F-1715.5732737389844
sg13
g0
(g14
g2
Ntp1706
Rp1707
(dp1708
g18
F-1715.5732737389844
sg19
Nsg20
F1.0
sg21
g0
(g22
g2
Ntp1709
Rp1710
(dp1711
g26
g27
sg28
Nsg29
g0
(g22
g2
Ntp1712
Rp1713
g1711
bsg30
(lp1714
g0
(g22
g2
Ntp1715
Rp1716
(dp1717
g26
g35
sg28
g1710
sg29
g1716
sg30
(lp1718
g0
(g22
g2
Ntp1719
Rp1720
(dp1721
g26
g40
sg28
g1716
sg29
g1720
sg30
(lp1722
g0
(g22
g2
Ntp1723
Rp1724
(dp1725
g26
g45
sg28
g1720
sg29
g1724
sg30
(lp1726
g0
(g22
g2
Ntp1727
Rp1728
(dp1729
g26
g72
sg28
g1724
sg29
g1728
sg30
Nsg51
g52
sg53
Nsbag0
(g22
g2
Ntp1730
Rp1731
(dp1732
g26
g45
sg28
g1724
sg29
g1731
sg30
(lp1733
g0
(g22
g2
Ntp1734
Rp1735
(dp1736
g26
g93
sg28
g1731
sg29
g1735
sg30
Nsg51
g52
sg53
Nsbag0
(g22
g2
Ntp1737
Rp1738
(dp1739
g26
g67
sg28
g1731
sg29
g1738
sg30
(lp1740
g0
(g22
g2
Ntp1741
Rp1742
(dp1743
g26
g93
sg28
g1738
sg29
g1742
sg30
Nsg51
g52
sg53
Nsbasg51
g73
sg53
Nsbasg51
g73
sg53
Nsbasg51
g73
sg53
Nsbasg51
g74
sg53
Nsbasg51
g75
sg53
Nsbasg51
g76
sg53
Nsbsg77
F-1708.2600533518942
sg78
g79
sg141
Nsg29
g143
sg183
Nsg184
g185
((dp1744
g72
I149
sg93
I363
stp1745
Rp1746
sg190
F-7.313220387090301
sg191
F1.0
sg192
g193
sg196
Nsg194
g195
sg197
I50
sbsbag0
(g8
g2
Ntp1747
Rp1748
(dp1749
g12
F-1715.5732737389844
sg13
g0
(g14
g2
Ntp1750
Rp1751
(dp1752
g18
F-1715.5732737389844
sg19
Nsg20
F1.0
sg21
g0
(g22
g2
Ntp1753
Rp1754
(dp1755
g26
g27
sg28
Nsg29
g0
(g22
g2
Ntp1756
Rp1757
g1755
bsg30
(lp1758
g0
(g22
g2
Ntp1759
Rp1760
(dp1761
g26
g35
sg28
g1754
sg29
g1760
sg30
(lp1762
g0
(g22
g2
Ntp1763
Rp1764
(dp1765
g26
g40
sg28
g1760
sg29
g1764
sg30
(lp1766
g0
(g22
g2
Ntp1767
Rp1768
(dp1769
g26
g45
sg28
g1764
sg29
g1768
sg30
(lp1770
g0
(g22
g2
Ntp1771
Rp1772
(dp1773
g26
g50
sg28
g1768
sg29
g1772
sg30
Nsg51
g52
sg53
Nsbag0
(g22
g2
Ntp1774
Rp1775
(dp1776
g26
g45
sg28
g1768
sg29
g1775
sg30
(lp1777
g0
(g22
g2
Ntp1778
Rp1779
(dp1780
g26
g61
sg28
g1775
sg29
g1779
sg30
Nsg51
g52
sg53
Nsbag0
(g22
g2
Ntp1781
Rp1782
(dp1783
g26
g67
sg28
g1775
sg29
g1782
sg30
(lp1784
g0
(g22
g2
Ntp1785
Rp1786
(dp1787
g26
g50
sg28
g1782
sg29
g1786
sg30
Nsg51
g52
sg53
Nsbasg51
g73
sg53
Nsbasg51
g73
sg53
Nsbasg51
g73
sg53
Nsbasg51
g74
sg53
Nsbasg51
g75
sg53
Nsbasg51
g76
sg53
Nsbsg77
F-1708.2600533518942
sg78
g79
sg141
Nsg29
g143
sg183
Nsg184
g185
((dp1788
g61
I167
sg50
I345
stp1789
Rp1790
sg190
F-7.313220387090301
sg191
F1.0
sg192
g193
sg196
Nsg194
g195
sg197
I50
sbsbag0
(g8
g2
Ntp1791
Rp1792
(dp1793
g12
F-1714.7747660427667
sg13
g0
(g14
g2
Ntp1794
Rp1795
(dp1796
g18
F-1714.7747660427667
sg19
Nsg20
F1.0
sg21
g0
(g22
g2
Ntp1797
Rp1798
(dp1799
g26
g27
sg28
Nsg29
g1798
sg30
(lp1800
g0
(g22
g2
Ntp1801
Rp1802
(dp1803
g26
g136
sg28
g1798
sg29
g1802
sg30
(lp1804
g0
(g22
g2
Ntp1805
Rp1806
(dp1807
g26
g35
sg28
g1802
sg29
g0
(g22
g2
Ntp1808
Rp1809
g1807
bsg30
(lp1810
g0
(g22
g2
Ntp1811
Rp1812
(dp1813
g26
g40
sg28
g1806
sg29
g1812
sg30
(lp1814
g0
(g22
g2
Ntp1815
Rp1816
(dp1817
g26
g67
sg28
g1812
sg29
g1816
sg30
(lp1818
g0
(g22
g2
Ntp1819
Rp1820
(dp1821
g26
g107
sg28
g1816
sg29
g1820
sg30
Nsg51
g52
sg53
Nsbasg51
g73
sg53
Nsbasg51
g74
sg53
Nsbasg51
g75
sg53
Nsbag0
(g22
g2
Ntp1822
Rp1823
(dp1824
g26
g35
sg28
g1802
sg29
g1823
sg30
(lp1825
g0
(g22
g2
Ntp1826
Rp1827
(dp1828
g26
g40
sg28
g1823
sg29
g1827
sg30
(lp1829
g0
(g22
g2
Ntp1830
Rp1831
(dp1832
g26
g67
sg28
g1827
sg29
g1831
sg30
(lp1833
g0
(g22
g2
Ntp1834
Rp1835
(dp1836
g26
g93
sg28
g1831
sg29
g1835
sg30
Nsg51
g52
sg53
Nsbasg51
g73
sg53
Nsbasg51
g74
sg53
Nsbasg51
g75
sg53
Nsbasg51
g75
sg53
Nsbasg51
g76
sg53
Nsbsg77
F-1708.2600533518942
sg78
g79
sg141
Nsg29
g143
sg183
Nsg184
g185
((dp1837
S'o p'
p1838
I512
stp1839
Rp1840
sg190
F-6.514712690872528
sg191
F1.0
sg192
g193
sg196
Nsg194
g195
sg197
I50
sbsbag0
(g8
g2
Ntp1841
Rp1842
(dp1843
g12
F-1714.7747660427667
sg13
g0
(g14
g2
Ntp1844
Rp1845
(dp1846
g18
F-1714.7747660427667
sg19
Nsg20
F1.0
sg21
g0
(g22
g2
Ntp1847
Rp1848
(dp1849
g26
g27
sg28
Nsg29
g1848
sg30
(lp1850
g0
(g22
g2
Ntp1851
Rp1852
(dp1853
g26
g136
sg28
g1848
sg29
g0
(g22
g2
Ntp1854
Rp1855
g1853
bsg30
(lp1856
g0
(g22
g2
Ntp1857
Rp1858
(dp1859
g26
g35
sg28
g1852
sg29
g1858
sg30
(lp1860
g0
(g22
g2
Ntp1861
Rp1862
(dp1863
g26
g40
sg28
g1858
sg29
g1862
sg30
(lp1864
g0
(g22
g2
Ntp1865
Rp1866
(dp1867
g26
g67
sg28
g1862
sg29
g1866
sg30
(lp1868
g0
(g22
g2
Ntp1869
Rp1870
(dp1871
g26
g50
sg28
g1866
sg29
g1870
sg30
Nsg51
g52
sg53
Nsbasg51
g73
sg53
Nsbasg51
g74
sg53
Nsbasg51
g75
sg53
Nsbag0
(g22
g2
Ntp1872
Rp1873
(dp1874
g26
g35
sg28
g1852
sg29
g1873
sg30
(lp1875
g0
(g22
g2
Ntp1876
Rp1877
(dp1878
g26
g40
sg28
g1873
sg29
g1877
sg30
(lp1879
g0
(g22
g2
Ntp1880
Rp1881
(dp1882
g26
g67
sg28
g1877
sg29
g1881
sg30
(lp1883
g0
(g22
g2
Ntp1884
Rp1885
(dp1886
g26
g50
sg28
g1881
sg29
g1885
sg30
Nsg51
g52
sg53
Nsbasg51
g73
sg53
Nsbasg51
g74
sg53
Nsbasg51
g75
sg53
Nsbasg51
g75
sg53
Nsbasg51
g76
sg53
Nsbsg77
F-1708.2600533518942
sg78
g79
sg141
Nsg29
g143
sg183
Nsg184
g185
((dp1887
S'm m'
p1888
I512
stp1889
Rp1890
sg190
F-6.514712690872528
sg191
F1.0
sg192
g193
sg196
Nsg194
g195
sg197
I50
sbsbag0
(g8
g2
Ntp1891
Rp1892
(dp1893
g12
F-1714.7747660427667
sg13
g0
(g14
g2
Ntp1894
Rp1895
(dp1896
g18
F-1714.7747660427667
sg19
Nsg20
F1.0
sg21
g0
(g22
g2
Ntp1897
Rp1898
(dp1899
g26
g27
sg28
Nsg29
g0
(g22
g2
Ntp1900
Rp1901
g1899
bsg30
(lp1902
g0
(g22
g2
Ntp1903
Rp1904
(dp1905
g26
g136
sg28
g1898
sg29
g1904
sg30
(lp1906
g0
(g22
g2
Ntp1907
Rp1908
(dp1909
g26
g35
sg28
g1904
sg29
g1908
sg30
(lp1910
g0
(g22
g2
Ntp1911
Rp1912
(dp1913
g26
g40
sg28
g1908
sg29
g1912
sg30
(lp1914
g0
(g22
g2
Ntp1915
Rp1916
(dp1917
g26
g67
sg28
g1912
sg29
g1916
sg30
(lp1918
g0
(g22
g2
Ntp1919
Rp1920
(dp1921
g26
g61
sg28
g1916
sg29
g1920
sg30
Nsg51
g52
sg53
Nsbasg51
g73
sg53
Nsbasg51
g74
sg53
Nsbasg51
g75
sg53
Nsbag0
(g22
g2
Ntp1922
Rp1923
(dp1924
g26
g35
sg28
g1904
sg29
g1923
sg30
(lp1925
g0
(g22
g2
Ntp1926
Rp1927
(dp1928
g26
g40
sg28
g1923
sg29
g1927
sg30
(lp1929
g0
(g22
g2
Ntp1930
Rp1931
(dp1932
g26
g67
sg28
g1927
sg29
g1931
sg30
(lp1933
g0
(g22
g2
Ntp1934
Rp1935
(dp1936
g26
g107
sg28
g1931
sg29
g1935
sg30
Nsg51
g52
sg53
Nsbasg51
g73
sg53
Nsbasg51
g74
sg53
Nsbasg51
g75
sg53
Nsbasg51
g75
sg53
Nsbasg51
g76
sg53
Nsbsg77
F-1708.2600533518942
sg78
g79
sg141
Nsg29
g143
sg183
Nsg184
g185
((dp1937
S'b o'
p1938
I512
stp1939
Rp1940
sg190
F-6.514712690872528
sg191
F1.0
sg192
g193
sg196
Nsg194
g195
sg197
I50
sbsbag0
(g8
g2
Ntp1941
Rp1942
(dp1943
g12
F-1714.7747660427667
sg13
g0
(g14
g2
Ntp1944
Rp1945
(dp1946
g18
F-1714.7747660427667
sg19
Nsg20
F1.0
sg21
g0
(g22
g2
Ntp1947
Rp1948
(dp1949
g26
g27
sg28
Nsg29
g1948
sg30
(lp1950
g0
(g22
g2
Ntp1951
Rp1952
(dp1953
g26
g136
sg28
g1948
sg29
g1952
sg30
(lp1954
g0
(g22
g2
Ntp1955
Rp1956
(dp1957
g26
g35
sg28
g1952
sg29
g1956
sg30
(lp1958
g0
(g22
g2
Ntp1959
Rp1960
(dp1961
g26
g40
sg28
g1956
sg29
g1960
sg30
(lp1962
g0
(g22
g2
Ntp1963
Rp1964
(dp1965
g26
g67
sg28
g1960
sg29
g1964
sg30
(lp1966
g0
(g22
g2
Ntp1967
Rp1968
(dp1969
g26
g93
sg28
g1964
sg29
g1968
sg30
Nsg51
g52
sg53
Nsbasg51
g73
sg53
Nsbasg51
g74
sg53
Nsbasg51
g75
sg53
Nsbag0
(g22
g2
Ntp1970
Rp1971
(dp1972
g26
g35
sg28
g1952
sg29
g0
(g22
g2
Ntp1973
Rp1974
g1972
bsg30
(lp1975
g0
(g22
g2
Ntp1976
Rp1977
(dp1978
g26
g40
sg28
g1971
sg29
g1977
sg30
(lp1979
g0
(g22
g2
Ntp1980
Rp1981
(dp1982
g26
g67
sg28
g1977
sg29
g1981
sg30
(lp1983
g0
(g22
g2
Ntp1984
Rp1985
(dp1986
g26
g93
sg28
g1981
sg29
g1985
sg30
Nsg51
g52
sg53
Nsbasg51
g73
sg53
Nsbasg51
g74
sg53
Nsbasg51
g75
sg53
Nsbasg51
g75
sg53
Nsbasg51
g76
sg53
Nsbsg77
F-1708.2600533518942
sg78
g79
sg141
Nsg29
g143
sg183
Nsg184
g185
((dp1987
S'p p'
p1988
I512
stp1989
Rp1990
sg190
F-6.514712690872528
sg191
F1.0
sg192
g193
sg196
Nsg194
g195
sg197
I50
sbsbag0
(g8
g2
Ntp1991
Rp1992
(dp1993
g12
F-1714.7747660427667
sg13
g0
(g14
g2
Ntp1994
Rp1995
(dp1996
g18
F-1714.7747660427667
sg19
Nsg20
F1.0
sg21
g0
(g22
g2
Ntp1997
Rp1998
(dp1999
g26
g27
sg28
Nsg29
g1998
sg30
(lp2000
g0
(g22
g2
Ntp2001
Rp2002
(dp2003
g26
g136
sg28
g1998
sg29
g2002
sg30
(lp2004
g0
(g22
g2
Ntp2005
Rp2006
(dp2007
g26
g35
sg28
g2002
sg29
g2006
sg30
(lp2008
g0
(g22
g2
Ntp2009
Rp2010
(dp2011
g26
g40
sg28
g2006
sg29
g2010
sg30
(lp2012
g0
(g22
g2
Ntp2013
Rp2014
(dp2015
g26
g67
sg28
g2010
sg29
g2014
sg30
(lp2016
g0
(g22
g2
Ntp2017
Rp2018
(dp2019
g26
g72
sg28
g2014
sg29
g2018
sg30
Nsg51
g52
sg53
Nsbasg51
g73
sg53
Nsbasg51
g74
sg53
Nsbasg51
g75
sg53
Nsbag0
(g22
g2
Ntp2020
Rp2021
(dp2022
g26
g35
sg28
g2002
sg29
g2021
sg30
(lp2023
g0
(g22
g2
Ntp2024
Rp2025
(dp2026
g26
g40
sg28
g2021
sg29
g2025
sg30
(lp2027
g0
(g22
g2
Ntp2028
Rp2029
(dp2030
g26
g67
sg28
g2025
sg29
g0
(g22
g2
Ntp2031
Rp2032
g2030
bsg30
(lp2033
g0
(g22
g2
Ntp2034
Rp2035
(dp2036
g26
g93
sg28
g2029
sg29
g2035
sg30
Nsg51
g52
sg53
Nsbasg51
g73
sg53
Nsbasg51
g74
sg53
Nsbasg51
g75
sg53
Nsbasg51
g75
sg53
Nsbasg51
g76
sg53
Nsbsg77
F-1708.2600533518942
sg78
g79
sg141
Nsg29
g143
sg183
Nsg184
g185
((dp2037
S'i p'
p2038
I512
stp2039
Rp2040
sg190
F-6.514712690872528
sg191
F1.0
sg192
g193
sg196
Nsg194
g195
sg197
I50
sbsbag0
(g8
g2
Ntp2041
Rp2042
(dp2043
g12
F-1715.5732737389844
sg13
g0
(g14
g2
Ntp2044
Rp2045
(dp2046
g18
F-1715.5732737389844
sg19
Nsg20
F1.0
sg21
g0
(g22
g2
Ntp2047
Rp2048
(dp2049
g26
g27
sg28
Nsg29
g2048
sg30
(lp2050
g0
(g22
g2
Ntp2051
Rp2052
(dp2053
g26
g35
sg28
g2048
sg29
g0
(g22
g2
Ntp2054
Rp2055
g2053
bsg30
(lp2056
g0
(g22
g2
Ntp2057
Rp2058
(dp2059
g26
g40
sg28
g2052
sg29
g2058
sg30
(lp2060
g0
(g22
g2
Ntp2061
Rp2062
(dp2063
g26
g45
sg28
g2058
sg29
g2062
sg30
(lp2064
g0
(g22
g2
Ntp2065
Rp2066
(dp2067
g26
g61
sg28
g2062
sg29
g2066
sg30
Nsg51
g52
sg53
Nsbag0
(g22
g2
Ntp2068
Rp2069
(dp2070
g26
g45
sg28
g2062
sg29
g2069
sg30
(lp2071
g0
(g22
g2
Ntp2072
Rp2073
(dp2074
g26
g107
sg28
g2069
sg29
g2073
sg30
Nsg51
g52
sg53
Nsbag0
(g22
g2
Ntp2075
Rp2076
(dp2077
g26
g67
sg28
g2069
sg29
g2076
sg30
(lp2078
g0
(g22
g2
Ntp2079
Rp2080
(dp2081
g26
g50
sg28
g2076
sg29
g2080
sg30
Nsg51
g52
sg53
Nsbasg51
g73
sg53
Nsbasg51
g73
sg53
Nsbasg51
g73
sg53
Nsbasg51
g74
sg53
Nsbasg51
g75
sg53
Nsbasg51
g76
sg53
Nsbsg77
F-1708.2600533518942
sg78
g79
sg141
Nsg29
g143
sg183
Nsg184
g185
((dp2082
g61
I184
sg50
I168
sg107
I160
stp2083
Rp2084
sg190
F-7.313220387090301
sg191
F1.0
sg192
g193
sg196
Nsg194
g195
sg197
I50
sbsbag0
(g8
g2
Ntp2085
Rp2086
(dp2087
g12
F-1714.7747660427667
sg13
g0
(g14
g2
Ntp2088
Rp2089
(dp2090
g18
F-1714.7747660427667
sg19
Nsg20
F1.0
sg21
g0
(g22
g2
Ntp2091
Rp2092
(dp2093
g26
g27
sg28
Nsg29
g2092
sg30
(lp2094
g0
(g22
g2
Ntp2095
Rp2096
(dp2097
g26
g136
sg28
g2092
sg29
g0
(g22
g2
Ntp2098
Rp2099
g2097
bsg30
(lp2100
g0
(g22
g2
Ntp2101
Rp2102
(dp2103
g26
g35
sg28
g2096
sg29
g2102
sg30
(lp2104
g0
(g22
g2
Ntp2105
Rp2106
(dp2107
g26
g40
sg28
g2102
sg29
g2106
sg30
(lp2108
g0
(g22
g2
Ntp2109
Rp2110
(dp2111
g26
g67
sg28
g2106
sg29
g2110
sg30
(lp2112
g0
(g22
g2
Ntp2113
Rp2114
(dp2115
g26
g61
sg28
g2110
sg29
g2114
sg30
Nsg51
g52
sg53
Nsbasg51
g73
sg53
Nsbasg51
g74
sg53
Nsbasg51
g75
sg53
Nsbag0
(g22
g2
Ntp2116
Rp2117
(dp2118
g26
g35
sg28
g2096
sg29
g2117
sg30
(lp2119
g0
(g22
g2
Ntp2120
Rp2121
(dp2122
g26
g40
sg28
g2117
sg29
g2121
sg30
(lp2123
g0
(g22
g2
Ntp2124
Rp2125
(dp2126
g26
g67
sg28
g2121
sg29
g2125
sg30
(lp2127
g0
(g22
g2
Ntp2128
Rp2129
(dp2130
g26
g72
sg28
g2125
sg29
g2129
sg30
Nsg51
g52
sg53
Nsbasg51
g73
sg53
Nsbasg51
g74
sg53
Nsbasg51
g75
sg53
Nsbasg51
g75
sg53
Nsbasg51
g76
sg53
Nsbsg77
F-1708.2600533518942
sg78
g79
sg141
Nsg29
g143
sg183
Nsg184
g185
((dp2131
S'b i'
p2132
I512
stp2133
Rp2134
sg190
F-6.514712690872528
sg191
F1.0
sg192
g193
sg196
Nsg194
g195
sg197
I50
sbsbag0
(g8
g2
Ntp2135
Rp2136
(dp2137
g12
F-1714.7747660427667
sg13
g0
(g14
g2
Ntp2138
Rp2139
(dp2140
g18
F-1714.7747660427667
sg19
Nsg20
F1.0
sg21
g0
(g22
g2
Ntp2141
Rp2142
(dp2143
g26
g27
sg28
Nsg29
g2142
sg30
(lp2144
g0
(g22
g2
Ntp2145
Rp2146
(dp2147
g26
g136
sg28
g2142
sg29
g2146
sg30
(lp2148
g0
(g22
g2
Ntp2149
Rp2150
(dp2151
g26
g35
sg28
g2146
sg29
g0
(g22
g2
Ntp2152
Rp2153
g2151
bsg30
(lp2154
g0
(g22
g2
Ntp2155
Rp2156
(dp2157
g26
g40
sg28
g2150
sg29
g2156
sg30
(lp2158
g0
(g22
g2
Ntp2159
Rp2160
(dp2161
g26
g67
sg28
g2156
sg29
g2160
sg30
(lp2162
g0
(g22
g2
Ntp2163
Rp2164
(dp2165
g26
g72
sg28
g2160
sg29
g2164
sg30
Nsg51
g52
sg53
Nsbasg51
g73
sg53
Nsbasg51
g74
sg53
Nsbasg51
g75
sg53
Nsbag0
(g22
g2
Ntp2166
Rp2167
(dp2168
g26
g35
sg28
g2146
sg29
g2167
sg30
(lp2169
g0
(g22
g2
Ntp2170
Rp2171
(dp2172
g26
g40
sg28
g2167
sg29
g2171
sg30
(lp2173
g0
(g22
g2
Ntp2174
Rp2175
(dp2176
g26
g67
sg28
g2171
sg29
g2175
sg30
(lp2177
g0
(g22
g2
Ntp2178
Rp2179
(dp2180
g26
g107
sg28
g2175
sg29
g2179
sg30
Nsg51
g52
sg53
Nsbasg51
g73
sg53
Nsbasg51
g74
sg53
Nsbasg51
g75
sg53
Nsbasg51
g75
sg53
Nsbasg51
g76
sg53
Nsbsg77
F-1708.2600533518942
sg78
g79
sg141
Nsg29
g143
sg183
Nsg184
g185
((dp2181
S'i o'
p2182
I512
stp2183
Rp2184
sg190
F-6.514712690872528
sg191
F1.0
sg192
g193
sg196
Nsg194
g195
sg197
I50
sbsbag0
(g8
g2
Ntp2185
Rp2186
(dp2187
g12
F-1713.2706886459905
sg13
g0
(g14
g2
Ntp2188
Rp2189
(dp2190
g18
F-1713.2706886459905
sg19
Nsg20
F1.0
sg21
g0
(g22
g2
Ntp2191
Rp2192
(dp2193
g26
g27
sg28
Nsg29
g2192
sg30
(lp2194
g0
(g22
g2
Ntp2195
Rp2196
(dp2197
g26
g35
sg28
g2192
sg29
g0
(g22
g2
Ntp2198
Rp2199
g2197
bsg30
(lp2200
g0
(g22
g2
Ntp2201
Rp2202
(dp2203
g26
g40
sg28
g2196
sg29
g2202
sg30
(lp2204
g0
(g22
g2
Ntp2205
Rp2206
(dp2207
g26
g45
sg28
g2202
sg29
g2206
sg30
(lp2208
g0
(g22
g2
Ntp2209
Rp2210
(dp2211
g26
g107
sg28
g2206
sg29
g2210
sg30
Nsg51
g52
sg53
Nsbag0
(g22
g2
Ntp2212
Rp2213
(dp2214
g26
g67
sg28
g2206
sg29
g2213
sg30
(lp2215
g0
(g22
g2
Ntp2216
Rp2217
(dp2218
g26
g50
sg28
g2213
sg29
g2217
sg30
Nsg51
g52
sg53
Nsbasg51
g73
sg53
Nsbasg51
g73
sg53
Nsbasg51
g74
sg53
Nsbasg51
g75
sg53
Nsbasg51
g76
sg53
Nsbsg77
F-1708.2600533518942
sg78
g79
sg141
Nsg29
g143
sg183
Nsg184
g185
((dp2219
g50
I267
sg107
I245
stp2220
Rp2221
sg190
F-5.0106352940962555
sg191
F1.0
sg192
g193
sg196
Nsg194
g195
sg197
I50
sbsbag0
(g8
g2
Ntp2222
Rp2223
(dp2224
g12
F-1713.2706886459905
sg13
g0
(g14
g2
Ntp2225
Rp2226
(dp2227
g18
F-1713.2706886459905
sg19
Nsg20
F1.0
sg21
g0
(g22
g2
Ntp2228
Rp2229
(dp2230
g26
g27
sg28
Nsg29
g2229
sg30
(lp2231
g0
(g22
g2
Ntp2232
Rp2233
(dp2234
g26
g35
sg28
g2229
sg29
g2233
sg30
(lp2235
g0
(g22
g2
Ntp2236
Rp2237
(dp2238
g26
g40
sg28
g2233
sg29
g2237
sg30
(lp2239
g0
(g22
g2
Ntp2240
Rp2241
(dp2242
g26
g45
sg28
g2237
sg29
g0
(g22
g2
Ntp2243
Rp2244
g2242
bsg30
(lp2245
g0
(g22
g2
Ntp2246
Rp2247
(dp2248
g26
g50
sg28
g2241
sg29
g2247
sg30
Nsg51
g52
sg53
Nsbag0
(g22
g2
Ntp2249
Rp2250
(dp2251
g26
g67
sg28
g2241
sg29
g2250
sg30
(lp2252
g0
(g22
g2
Ntp2253
Rp2254
(dp2255
g26
g72
sg28
g2250
sg29
g2254
sg30
Nsg51
g52
sg53
Nsbasg51
g73
sg53
Nsbasg51
g73
sg53
Nsbasg51
g74
sg53
Nsbasg51
g75
sg53
Nsbasg51
g76
sg53
Nsbsg77
F-1708.2600533518942
sg78
g79
sg141
Nsg29
g143
sg183
Nsg184
g185
((dp2256
g72
I269
sg50
I243
stp2257
Rp2258
sg190
F-5.0106352940962555
sg191
F1.0
sg192
g193
sg196
Nsg194
g195
sg197
I50
sbsbag0
(g8
g2
Ntp2259
Rp2260
(dp2261
g12
F-610.6879145142952
sg13
g0
(g14
g2
Ntp2262
Rp2263
(dp2264
g18
F-610.6879145142952
sg19
Nsg20
F1.0
sg21
g0
(g22
g2
Ntp2265
Rp2266
(dp2267
g26
g27
sg28
Nsg29
g2266
sg30
(lp2268
g0
(g22
g2
Ntp2269
Rp2270
(dp2271
g26
g136
sg28
g2266
sg29
g2270
sg30
(lp2272
g0
(g22
g2
Ntp2273
Rp2274
(dp2275
g26
g136
sg28
g2270
sg29
g2274
sg30
(lp2276
g0
(g22
g2
Ntp2277
Rp2278
(dp2279
g26
g35
sg28
g2274
sg29
g2278
sg30
(lp2280
g0
(g22
g2
Ntp2281
Rp2282
(dp2283
g26
g40
sg28
g2278
sg29
g2282
sg30
(lp2284
g0
(g22
g2
Ntp2285
Rp2286
(dp2287
g26
g45
sg28
g2282
sg29
g2286
sg30
(lp2288
g0
(g22
g2
Ntp2289
Rp2290
(dp2291
g26
g72
sg28
g2286
sg29
g2290
sg30
Nsg51
g52
sg53
Nsbag0
(g22
g2
Ntp2292
Rp2293
(dp2294
g26
g67
sg28
g2286
sg29
g0
(g22
g2
Ntp2295
Rp2296
g2294
bsg30
(lp2297
g0
(g22
g2
Ntp2298
Rp2299
(dp2300
g26
g61
sg28
g2293
sg29
g2299
sg30
Nsg51
g52
sg53
Nsbasg51
g73
sg53
Nsbasg51
g73
sg53
Nsbasg51
g74
sg53
Nsbasg51
g75
sg53
Nsbag0
(g22
g2
Ntp2301
Rp2302
(dp2303
g26
g35
sg28
g2274
sg29
g2302
sg30
(lp2304
g0
(g22
g2
Ntp2305
Rp2306
(dp2307
g26
g40
sg28
g2302
sg29
g2306
sg30
(lp2308
g0
(g22
g2
Ntp2309
Rp2310
(dp2311
g26
g45
sg28
g2306
sg29
g2310
sg30
(lp2312
g0
(g22
g2
Ntp2313
Rp2314
(dp2315
g26
g93
sg28
g2310
sg29
g2314
sg30
Nsg51
g52
sg53
Nsbag0
(g22
g2
Ntp2316
Rp2317
(dp2318
g26
g45
sg28
g2310
sg29
g2317
sg30
(lp2319
g0
(g22
g2
Ntp2320
Rp2321
(dp2322
g26
g107
sg28
g2317
sg29
g2321
sg30
Nsg51
g52
sg53
Nsbag0
(g22
g2
Ntp2323
Rp2324
(dp2325
g26
g45
sg28
g2317
sg29
g2324
sg30
(lp2326
g0
(g22
g2
Ntp2327
Rp2328
(dp2329
g26
g72
sg28
g2324
sg29
g2328
sg30
Nsg51
g52
sg53
Nsbag0
(g22
g2
Ntp2330
Rp2331
(dp2332
g26
g67
sg28
g2324
sg29
g2331
sg30
(lp2333
g0
(g22
g2
Ntp2334
Rp2335
(dp2336
g26
g93
sg28
g2331
sg29
g2335
sg30
Nsg51
g52
sg53
Nsbasg51
g73
sg53
Nsbasg51
g73
sg53
Nsbasg51
g73
sg53
Nsbasg51
g73
sg53
Nsbasg51
g74
sg53
Nsbasg51
g75
sg53
Nsbasg51
g75
sg53
Nsbag0
(g22
g2
Ntp2337
Rp2338
(dp2339
g26
g35
sg28
g2270
sg29
g2338
sg30
(lp2340
g0
(g22
g2
Ntp2341
Rp2342
(dp2343
g26
g40
sg28
g2338
sg29
g2342
sg30
(lp2344
g0
(g22
g2
Ntp2345
Rp2346
(dp2347
g26
g45
sg28
g2342
sg29
g2346
sg30
(lp2348
g0
(g22
g2
Ntp2349
Rp2350
(dp2351
g26
g93
sg28
g2346
sg29
g2350
sg30
Nsg51
g52
sg53
Nsbag0
(g22
g2
Ntp2352
Rp2353
(dp2354
g26
g45
sg28
g2346
sg29
g2353
sg30
(lp2355
g0
(g22
g2
Ntp2356
Rp2357
(dp2358
g26
g93
sg28
g2353
sg29
g2357
sg30
Nsg51
g52
sg53
Nsbag0
(g22
g2
Ntp2359
Rp2360
(dp2361
g26
g67
sg28
g2353
sg29
g2360
sg30
(lp2362
g0
(g22
g2
Ntp2363
Rp2364
(dp2365
g26
g50
sg28
g2360
sg29
g2364
sg30
Nsg51
g52
sg53
Nsbasg51
g73
sg53
Nsbasg51
g73
sg53
Nsbasg51
g73
sg53
Nsbasg51
g74
sg53
Nsbasg51
g75
sg53
Nsbasg51
g75
sg53
Nsbasg51
g76
sg53
Nsbsg77
F-586.5510287756881
sg78
g79
sg141
Nsg29
g143
sg183
Nsg184
g185
((dp2366
S'i p m'
p2367
I50
sS'b i m'
p2368
I18
sS'i o m'
p2369
I18
sS'b i p'
p2370
I44
sS'b p p'
p2371
I80
sS'i i p'
p2372
I50
sS'b o m'
p2373
I23
sS'b o p'
p2374
I41
sS'i i m'
p2375
I18
sS'b p m'
p2376
I36
sS'i o p'
p2377
I47
sS'i p p'
p2378
I87
stp2379
Rp2380
sg190
F-24.13688573860712
sg191
F1.0
sg192
g193
sg196
Nsg194
g195
sg197
I50
sbsbag0
(g8
g2
Ntp2381
Rp2382
(dp2383
g12
F-1710.9681035529964
sg13
g0
(g14
g2
Ntp2384
Rp2385
(dp2386
g18
F-1710.9681035529964
sg19
Nsg20
F1.0
sg21
g0
(g22
g2
Ntp2387
Rp2388
(dp2389
g26
g27
sg28
Nsg29
g2388
sg30
(lp2390
g0
(g22
g2
Ntp2391
Rp2392
(dp2393
g26
g35
sg28
g2388
sg29
g2392
sg30
(lp2394
g0
(g22
g2
Ntp2395
Rp2396
(dp2397
g26
g40
sg28
g2392
sg29
g0
(g22
g2
Ntp2398
Rp2399
g2397
bsg30
(lp2400
g0
(g22
g2
Ntp2401
Rp2402
(dp2403
g26
g67
sg28
g2396
sg29
g2402
sg30
(lp2404
g0
(g22
g2
Ntp2405
Rp2406
(dp2407
g26
g107
sg28
g2402
sg29
g2406
sg30
Nsg51
g52
sg53
Nsbasg51
g73
sg53
Nsbasg51
g74
sg53
Nsbasg51
g75
sg53
Nsbasg51
g76
sg53
Nsbsg77
F-1708.2600533518942
sg78
g79
sg141
Nsg29
g143
sg183
Nsg184
g185
((dp2408
g107
I512
stp2409
Rp2410
sg190
F-2.7080502011022096
sg191
F1.0
sg192
g193
sg196
Nsg194
g195
sg197
I50
sbsbag0
(g8
g2
Ntp2411
Rp2412
(dp2413
g12
F-1713.2706886459905
sg13
g0
(g14
g2
Ntp2414
Rp2415
(dp2416
g18
F-1713.2706886459905
sg19
Nsg20
F1.0
sg21
g0
(g22
g2
Ntp2417
Rp2418
(dp2419
g26
g27
sg28
Nsg29
g2418
sg30
(lp2420
g0
(g22
g2
Ntp2421
Rp2422
(dp2423
g26
g35
sg28
g2418
sg29
g2422
sg30
(lp2424
g0
(g22
g2
Ntp2425
Rp2426
(dp2427
g26
g40
sg28
g2422
sg29
g2426
sg30
(lp2428
g0
(g22
g2
Ntp2429
Rp2430
(dp2431
g26
g45
sg28
g2426
sg29
g0
(g22
g2
Ntp2432
Rp2433
g2431
bsg30
(lp2434
g0
(g22
g2
Ntp2435
Rp2436
(dp2437
g26
g61
sg28
g2430
sg29
g2436
sg30
Nsg51
g52
sg53
Nsbag0
(g22
g2
Ntp2438
Rp2439
(dp2440
g26
g67
sg28
g2430
sg29
g2439
sg30
(lp2441
g0
(g22
g2
Ntp2442
Rp2443
(dp2444
g26
g93
sg28
g2439
sg29
g2443
sg30
Nsg51
g52
sg53
Nsbasg51
g73
sg53
Nsbasg51
g73
sg53
Nsbasg51
g74
sg53
Nsbasg51
g75
sg53
Nsbasg51
g76
sg53
Nsbsg77
F-1708.2600533518942
sg78
g79
sg141
Nsg29
g143
sg183
Nsg184
g185
((dp2445
g93
I239
sg61
I273
stp2446
Rp2447
sg190
F-5.0106352940962555
sg191
F1.0
sg192
g193
sg196
Nsg194
g195
sg197
I50
sbsbag0
(g8
g2
Ntp2448
Rp2449
(dp2450
g12
F-866.773512479276
sg13
g0
(g14
g2
Ntp2451
Rp2452
(dp2453
g18
F-866.773512479276
sg19
Nsg20
F1.0
sg21
g0
(g22
g2
Ntp2454
Rp2455
(dp2456
g26
g27
sg28
Nsg29
g2455
sg30
(lp2457
g0
(g22
g2
Ntp2458
Rp2459
(dp2460
g26
g136
sg28
g2455
sg29
g2459
sg30
(lp2461
g0
(g22
g2
Ntp2462
Rp2463
(dp2464
g26
g136
sg28
g2459
sg29
g2463
sg30
(lp2465
g0
(g22
g2
Ntp2466
Rp2467
(dp2468
g26
g35
sg28
g2463
sg29
g2467
sg30
(lp2469
g0
(g22
g2
Ntp2470
Rp2471
(dp2472
g26
g40
sg28
g2467
sg29
g2471
sg30
(lp2473
g0
(g22
g2
Ntp2474
Rp2475
(dp2476
g26
g67
sg28
g2471
sg29
g2475
sg30
(lp2477
g0
(g22
g2
Ntp2478
Rp2479
(dp2480
g26
g61
sg28
g2475
sg29
g2479
sg30
Nsg51
g52
sg53
Nsbasg51
g73
sg53
Nsbasg51
g74
sg53
Nsbasg51
g75
sg53
Nsbag0
(g22
g2
Ntp2481
Rp2482
(dp2483
g26
g35
sg28
g2463
sg29
g2482
sg30
(lp2484
g0
(g22
g2
Ntp2485
Rp2486
(dp2487
g26
g40
sg28
g2482
sg29
g2486
sg30
(lp2488
g0
(g22
g2
Ntp2489
Rp2490
(dp2491
g26
g67
sg28
g2486
sg29
g2490
sg30
(lp2492
g0
(g22
g2
Ntp2493
Rp2494
(dp2495
g26
g107
sg28
g2490
sg29
g2494
sg30
Nsg51
g52
sg53
Nsbasg51
g73
sg53
Nsbasg51
g74
sg53
Nsbasg51
g75
sg53
Nsbasg51
g75
sg53
Nsbag0
(g22
g2
Ntp2496
Rp2497
(dp2498
g26
g35
sg28
g2459
sg29
g2497
sg30
(lp2499
g0
(g22
g2
Ntp2500
Rp2501
(dp2502
g26
g40
sg28
g2497
sg29
g0
(g22
g2
Ntp2503
Rp2504
g2502
bsg30
(lp2505
g0
(g22
g2
Ntp2506
Rp2507
(dp2508
g26
g45
sg28
g2501
sg29
g2507
sg30
(lp2509
g0
(g22
g2
Ntp2510
Rp2511
(dp2512
g26
g93
sg28
g2507
sg29
g2511
sg30
Nsg51
g52
sg53
Nsbag0
(g22
g2
Ntp2513
Rp2514
(dp2515
g26
g67
sg28
g2507
sg29
g2514
sg30
(lp2516
g0
(g22
g2
Ntp2517
Rp2518
(dp2519
g26
g93
sg28
g2514
sg29
g2518
sg30
Nsg51
g52
sg53
Nsbasg51
g73
sg53
Nsbasg51
g73
sg53
Nsbasg51
g74
sg53
Nsbasg51
g75
sg53
Nsbasg51
g75
sg53
Nsbasg51
g76
sg53
Nsbsg77
F-854.1495522056391
sg78
g79
sg141
Nsg29
g143
sg183
Nsg184
g185
((dp2520
S'b o p'
p2521
I512
stp2522
Rp2523
sg190
F-12.623960273636893
sg191
F1.0
sg192
g193
sg196
Nsg194
g195
sg197
I50
sbsbag0
(g8
g2
Ntp2524
Rp2525
(dp2526
g12
F-866.773512479276
sg13
g0
(g14
g2
Ntp2527
Rp2528
(dp2529
g18
F-866.773512479276
sg19
Nsg20
F1.0
sg21
g0
(g22
g2
Ntp2530
Rp2531
(dp2532
g26
g27
sg28
Nsg29
g2531
sg30
(lp2533
g0
(g22
g2
Ntp2534
Rp2535
(dp2536
g26
g136
sg28
g2531
sg29
g2535
sg30
(lp2537
g0
(g22
g2
Ntp2538
Rp2539
(dp2540
g26
g136
sg28
g2535
sg29
g2539
sg30
(lp2541
g0
(g22
g2
Ntp2542
Rp2543
(dp2544
g26
g35
sg28
g2539
sg29
g2543
sg30
(lp2545
g0
(g22
g2
Ntp2546
Rp2547
(dp2548
g26
g40
sg28
g2543
sg29
g2547
sg30
(lp2549
g0
(g22
g2
Ntp2550
Rp2551
(dp2552
g26
g67
sg28
g2547
sg29
g2551
sg30
(lp2553
g0
(g22
g2
Ntp2554
Rp2555
(dp2556
g26
g61
sg28
g2551
sg29
g2555
sg30
Nsg51
g52
sg53
Nsbasg51
g73
sg53
Nsbasg51
g74
sg53
Nsbasg51
g75
sg53
Nsbag0
(g22
g2
Ntp2557
Rp2558
(dp2559
g26
g35
sg28
g2539
sg29
g0
(g22
g2
Ntp2560
Rp2561
g2559
bsg30
(lp2562
g0
(g22
g2
Ntp2563
Rp2564
(dp2565
g26
g40
sg28
g2558
sg29
g2564
sg30
(lp2566
g0
(g22
g2
Ntp2567
Rp2568
(dp2569
g26
g45
sg28
g2564
sg29
g2568
sg30
(lp2570
g0
(g22
g2
Ntp2571
Rp2572
(dp2573
g26
g107
sg28
g2568
sg29
g2572
sg30
Nsg51
g52
sg53
Nsbag0
(g22
g2
Ntp2574
Rp2575
(dp2576
g26
g67
sg28
g2568
sg29
g2575
sg30
(lp2577
g0
(g22
g2
Ntp2578
Rp2579
(dp2580
g26
g107
sg28
g2575
sg29
g2579
sg30
Nsg51
g52
sg53
Nsbasg51
g73
sg53
Nsbasg51
g73
sg53
Nsbasg51
g74
sg53
Nsbasg51
g75
sg53
Nsbasg51
g75
sg53
Nsbag0
(g22
g2
Ntp2581
Rp2582
(dp2583
g26
g35
sg28
g2535
sg29
g2582
sg30
(lp2584
g0
(g22
g2
Ntp2585
Rp2586
(dp2587
g26
g40
sg28
g2582
sg29
g2586
sg30
(lp2588
g0
(g22
g2
Ntp2589
Rp2590
(dp2591
g26
g67
sg28
g2586
sg29
g2590
sg30
(lp2592
g0
(g22
g2
Ntp2593
Rp2594
(dp2595
g26
g93
sg28
g2590
sg29
g2594
sg30
Nsg51
g52
sg53
Nsbasg51
g73
sg53
Nsbasg51
g74
sg53
Nsbasg51
g75
sg53
Nsbasg51
g75
sg53
Nsbasg51
g76
sg53
Nsbsg77
F-854.1495522056391
sg78
g79
sg141
Nsg29
g143
sg183
Nsg184
g185
((dp2596
S'b o p'
p2597
I512
stp2598
Rp2599
sg190
F-12.623960273636893
sg191
F1.0
sg192
g193
sg196
Nsg194
g195
sg197
I50
sbsbag0
(g8
g2
Ntp2600
Rp2601
(dp2602
g12
F-1710.9681035529964
sg13
g0
(g14
g2
Ntp2603
Rp2604
(dp2605
g18
F-1710.9681035529964
sg19
Nsg20
F1.0
sg21
g0
(g22
g2
Ntp2606
Rp2607
(dp2608
g26
g27
sg28
Nsg29
g2607
sg30
(lp2609
g0
(g22
g2
Ntp2610
Rp2611
(dp2612
g26
g35
sg28
g2607
sg29
g2611
sg30
(lp2613
g0
(g22
g2
Ntp2614
Rp2615
(dp2616
g26
g40
sg28
g2611
sg29
g2615
sg30
(lp2617
g0
(g22
g2
Ntp2618
Rp2619
(dp2620
g26
g67
sg28
g2615
sg29
g0
(g22
g2
Ntp2621
Rp2622
g2620
bsg30
(lp2623
g0
(g22
g2
Ntp2624
Rp2625
(dp2626
g26
g72
sg28
g2619
sg29
g2625
sg30
Nsg51
g52
sg53
Nsbasg51
g73
sg53
Nsbasg51
g74
sg53
Nsbasg51
g75
sg53
Nsbasg51
g76
sg53
Nsbsg77
F-1708.2600533518942
sg78
g79
sg141
Nsg29
g143
sg183
Nsg184
g185
((dp2627
g72
I512
stp2628
Rp2629
sg190
F-2.7080502011022096
sg191
F1.0
sg192
g193
sg196
Nsg194
g195
sg197
I50
sbsbag0
(g8
g2
Ntp2630
Rp2631
(dp2632
g12
F-866.773512479276
sg13
g0
(g14
g2
Ntp2633
Rp2634
(dp2635
g18
F-866.773512479276
sg19
Nsg20
F1.0
sg21
g0
(g22
g2
Ntp2636
Rp2637
(dp2638
g26
g27
sg28
Nsg29
g2637
sg30
(lp2639
g0
(g22
g2
Ntp2640
Rp2641
(dp2642
g26
g136
sg28
g2637
sg29
g2641
sg30
(lp2643
g0
(g22
g2
Ntp2644
Rp2645
(dp2646
g26
g136
sg28
g2641
sg29
g2645
sg30
(lp2647
g0
(g22
g2
Ntp2648
Rp2649
(dp2650
g26
g35
sg28
g2645
sg29
g2649
sg30
(lp2651
g0
(g22
g2
Ntp2652
Rp2653
(dp2654
g26
g40
sg28
g2649
sg29
g2653
sg30
(lp2655
g0
(g22
g2
Ntp2656
Rp2657
(dp2658
g26
g45
sg28
g2653
sg29
g2657
sg30
(lp2659
g0
(g22
g2
Ntp2660
Rp2661
(dp2662
g26
g61
sg28
g2657
sg29
g2661
sg30
Nsg51
g52
sg53
Nsbag0
(g22
g2
Ntp2663
Rp2664
(dp2665
g26
g67
sg28
g2657
sg29
g2664
sg30
(lp2666
g0
(g22
g2
Ntp2667
Rp2668
(dp2669
g26
g61
sg28
g2664
sg29
g2668
sg30
Nsg51
g52
sg53
Nsbasg51
g73
sg53
Nsbasg51
g73
sg53
Nsbasg51
g74
sg53
Nsbasg51
g75
sg53
Nsbag0
(g22
g2
Ntp2670
Rp2671
(dp2672
g26
g35
sg28
g2645
sg29
g0
(g22
g2
Ntp2673
Rp2674
g2672
bsg30
(lp2675
g0
(g22
g2
Ntp2676
Rp2677
(dp2678
g26
g40
sg28
g2671
sg29
g2677
sg30
(lp2679
g0
(g22
g2
Ntp2680
Rp2681
(dp2682
g26
g67
sg28
g2677
sg29
g2681
sg30
(lp2683
g0
(g22
g2
Ntp2684
Rp2685
(dp2686
g26
g107
sg28
g2681
sg29
g2685
sg30
Nsg51
g52
sg53
Nsbasg51
g73
sg53
Nsbasg51
g74
sg53
Nsbasg51
g75
sg53
Nsbasg51
g75
sg53
Nsbag0
(g22
g2
Ntp2687
Rp2688
(dp2689
g26
g35
sg28
g2641
sg29
g2688
sg30
(lp2690
g0
(g22
g2
Ntp2691
Rp2692
(dp2693
g26
g40
sg28
g2688
sg29
g2692
sg30
(lp2694
g0
(g22
g2
Ntp2695
Rp2696
(dp2697
g26
g67
sg28
g2692
sg29
g2696
sg30
(lp2698
g0
(g22
g2
Ntp2699
Rp2700
(dp2701
g26
g93
sg28
g2696
sg29
g2700
sg30
Nsg51
g52
sg53
Nsbasg51
g73
sg53
Nsbasg51
g74
sg53
Nsbasg51
g75
sg53
Nsbasg51
g75
sg53
Nsbasg51
g76
sg53
Nsbsg77
F-854.1495522056391
sg78
g79
sg141
Nsg29
g143
sg183
Nsg184
g185
((dp2702
S'b o p'
p2703
I512
stp2704
Rp2705
sg190
F-12.623960273636893
sg191
F1.0
sg192
g193
sg196
Nsg194
g195
sg197
I50
sbsbag0
(g8
g2
Ntp2706
Rp2707
(dp2708
g12
F-864.4709273862819
sg13
g0
(g14
g2
Ntp2709
Rp2710
(dp2711
g18
F-864.4709273862819
sg19
Nsg20
F1.0
sg21
g0
(g22
g2
Ntp2712
Rp2713
(dp2714
g26
g27
sg28
Nsg29
g2713
sg30
(lp2715
g0
(g22
g2
Ntp2716
Rp2717
(dp2718
g26
g136
sg28
g2713
sg29
g2717
sg30
(lp2719
g0
(g22
g2
Ntp2720
Rp2721
(dp2722
g26
g136
sg28
g2717
sg29
g2721
sg30
(lp2723
g0
(g22
g2
Ntp2724
Rp2725
(dp2726
g26
g35
sg28
g2721
sg29
g0
(g22
g2
Ntp2727
Rp2728
g2726
bsg30
(lp2729
g0
(g22
g2
Ntp2730
Rp2731
(dp2732
g26
g40
sg28
g2725
sg29
g2731
sg30
(lp2733
g0
(g22
g2
Ntp2734
Rp2735
(dp2736
g26
g67
sg28
g2731
sg29
g2735
sg30
(lp2737
g0
(g22
g2
Ntp2738
Rp2739
(dp2740
g26
g61
sg28
g2735
sg29
g2739
sg30
Nsg51
g52
sg53
Nsbasg51
g73
sg53
Nsbasg51
g74
sg53
Nsbasg51
g75
sg53
Nsbag0
(g22
g2
Ntp2741
Rp2742
(dp2743
g26
g35
sg28
g2721
sg29
g2742
sg30
(lp2744
g0
(g22
g2
Ntp2745
Rp2746
(dp2747
g26
g40
sg28
g2742
sg29
g2746
sg30
(lp2748
g0
(g22
g2
Ntp2749
Rp2750
(dp2751
g26
g67
sg28
g2746
sg29
g2750
sg30
(lp2752
g0
(g22
g2
Ntp2753
Rp2754
(dp2755
g26
g107
sg28
g2750
sg29
g2754
sg30
Nsg51
g52
sg53
Nsbasg51
g73
sg53
Nsbasg51
g74
sg53
Nsbasg51
g75
sg53
Nsbasg51
g75
sg53
Nsbag0
(g22
g2
Ntp2756
Rp2757
(dp2758
g26
g35
sg28
g2717
sg29
g2757
sg30
(lp2759
g0
(g22
g2
Ntp2760
Rp2761
(dp2762
g26
g40
sg28
g2757
sg29
g2761
sg30
(lp2763
g0
(g22
g2
Ntp2764
Rp2765
(dp2766
g26
g67
sg28
g2761
sg29
g2765
sg30
(lp2767
g0
(g22
g2
Ntp2768
Rp2769
(dp2770
g26
g93
sg28
g2765
sg29
g2769
sg30
Nsg51
g52
sg53
Nsbasg51
g73
sg53
Nsbasg51
g74
sg53
Nsbasg51
g75
sg53
Nsbasg51
g75
sg53
Nsbasg51
g76
sg53
Nsbsg77
F-854.1495522056391
sg78
g79
sg141
Nsg29
g143
sg183
Nsg184
g185
((dp2771
S'b o p'
p2772
I512
stp2773
Rp2774
sg190
F-10.321375180642846
sg191
F1.0
sg192
g193
sg196
Nsg194
g195
sg197
I50
sbsbag0
(g8
g2
Ntp2775
Rp2776
(dp2777
g12
F-869.0760975722701
sg13
g0
(g14
g2
Ntp2778
Rp2779
(dp2780
g18
F-869.0760975722701
sg19
Nsg20
F1.0
sg21
g0
(g22
g2
Ntp2781
Rp2782
(dp2783
g26
g27
sg28
Nsg29
g2782
sg30
(lp2784
g0
(g22
g2
Ntp2785
Rp2786
(dp2787
g26
g136
sg28
g2782
sg29
g2786
sg30
(lp2788
g0
(g22
g2
Ntp2789
Rp2790
(dp2791
g26
g136
sg28
g2786
sg29
g2790
sg30
(lp2792
g0
(g22
g2
Ntp2793
Rp2794
(dp2795
g26
g35
sg28
g2790
sg29
g2794
sg30
(lp2796
g0
(g22
g2
Ntp2797
Rp2798
(dp2799
g26
g40
sg28
g2794
sg29
g2798
sg30
(lp2800
g0
(g22
g2
Ntp2801
Rp2802
(dp2803
g26
g45
sg28
g2798
sg29
g0
(g22
g2
Ntp2804
Rp2805
g2803
bsg30
(lp2806
g0
(g22
g2
Ntp2807
Rp2808
(dp2809
g26
g61
sg28
g2802
sg29
g2808
sg30
Nsg51
g52
sg53
Nsbag0
(g22
g2
Ntp2810
Rp2811
(dp2812
g26
g67
sg28
g2802
sg29
g2811
sg30
(lp2813
g0
(g22
g2
Ntp2814
Rp2815
(dp2816
g26
g61
sg28
g2811
sg29
g2815
sg30
Nsg51
g52
sg53
Nsbasg51
g73
sg53
Nsbasg51
g73
sg53
Nsbasg51
g74
sg53
Nsbasg51
g75
sg53
Nsbag0
(g22
g2
Ntp2817
Rp2818
(dp2819
g26
g35
sg28
g2790
sg29
g2818
sg30
(lp2820
g0
(g22
g2
Ntp2821
Rp2822
(dp2823
g26
g40
sg28
g2818
sg29
g2822
sg30
(lp2824
g0
(g22
g2
Ntp2825
Rp2826
(dp2827
g26
g45
sg28
g2822
sg29
g2826
sg30
(lp2828
g0
(g22
g2
Ntp2829
Rp2830
(dp2831
g26
g107
sg28
g2826
sg29
g2830
sg30
Nsg51
g52
sg53
Nsbag0
(g22
g2
Ntp2832
Rp2833
(dp2834
g26
g67
sg28
g2826
sg29
g2833
sg30
(lp2835
g0
(g22
g2
Ntp2836
Rp2837
(dp2838
g26
g107
sg28
g2833
sg29
g2837
sg30
Nsg51
g52
sg53
Nsbasg51
g73
sg53
Nsbasg51
g73
sg53
Nsbasg51
g74
sg53
Nsbasg51
g75
sg53
Nsbasg51
g75
sg53
Nsbag0
(g22
g2
Ntp2839
Rp2840
(dp2841
g26
g35
sg28
g2786
sg29
g2840
sg30
(lp2842
g0
(g22
g2
Ntp2843
Rp2844
(dp2845
g26
g40
sg28
g2840
sg29
g2844
sg30
(lp2846
g0
(g22
g2
Ntp2847
Rp2848
(dp2849
g26
g67
sg28
g2844
sg29
g2848
sg30
(lp2850
g0
(g22
g2
Ntp2851
Rp2852
(dp2853
g26
g93
sg28
g2848
sg29
g2852
sg30
Nsg51
g52
sg53
Nsbasg51
g73
sg53
Nsbasg51
g74
sg53
Nsbasg51
g75
sg53
Nsbasg51
g75
sg53
Nsbasg51
g76
sg53
Nsbsg77
F-854.1495522056391
sg78
g79
sg141
Nsg29
g143
sg183
Nsg184
g185
((dp2854
S'b o p'
p2855
I512
stp2856
Rp2857
sg190
F-14.92654536663094
sg191
F1.0
sg192
g193
sg196
Nsg194
g195
sg197
I50
sbsbag0
(g8
g2
Ntp2858
Rp2859
(dp2860
g12
F-1710.9681035529964
sg13
g0
(g14
g2
Ntp2861
Rp2862
(dp2863
g18
F-1710.9681035529964
sg19
Nsg20
F1.0
sg21
g0
(g22
g2
Ntp2864
Rp2865
(dp2866
g26
g27
sg28
Nsg29
g2865
sg30
(lp2867
g0
(g22
g2
Ntp2868
Rp2869
(dp2870
g26
g35
sg28
g2865
sg29
g2869
sg30
(lp2871
g0
(g22
g2
Ntp2872
Rp2873
(dp2874
g26
g40
sg28
g2869
sg29
g2873
sg30
(lp2875
g0
(g22
g2
Ntp2876
Rp2877
(dp2878
g26
g67
sg28
g2873
sg29
g2877
sg30
(lp2879
g0
(g22
g2
Ntp2880
Rp2881
(dp2882
g26
g50
sg28
g2877
sg29
g0
(g22
g2
Ntp2883
Rp2884
g2882
bsg30
Nsg51
g52
sg53
Nsbasg51
g73
sg53
Nsbasg51
g74
sg53
Nsbasg51
g75
sg53
Nsbasg51
g76
sg53
Nsbsg77
F-1708.2600533518942
sg78
g79
sg141
Nsg29
g143
sg183
Nsg184
g185
((dp2885
g50
I512
stp2886
Rp2887
sg190
F-2.7080502011022096
sg191
F1.0
sg192
g193
sg196
Nsg194
g195
sg197
I50
sbsbag0
(g8
g2
Ntp2888
Rp2889
(dp2890
g12
F-946.4573779429949
sg13
g0
(g14
g2
Ntp2891
Rp2892
(dp2893
g18
F-946.4573779429949
sg19
Nsg20
F1.0
sg21
g0
(g22
g2
Ntp2894
Rp2895
(dp2896
g26
g27
sg28
Nsg29
g2895
sg30
(lp2897
g0
(g22
g2
Ntp2898
Rp2899
(dp2900
g26
g136
sg28
g2895
sg29
g2899
sg30
(lp2901
g0
(g22
g2
Ntp2902
Rp2903
(dp2904
g26
g136
sg28
g2899
sg29
g2903
sg30
(lp2905
g0
(g22
g2
Ntp2906
Rp2907
(dp2908
g26
g35
sg28
g2903
sg29
g2907
sg30
(lp2909
g0
(g22
g2
Ntp2910
Rp2911
(dp2912
g26
g40
sg28
g2907
sg29
g2911
sg30
(lp2913
g0
(g22
g2
Ntp2914
Rp2915
(dp2916
g26
g45
sg28
g2911
sg29
g0
(g22
g2
Ntp2917
Rp2918
g2916
bsg30
(lp2919
g0
(g22
g2
Ntp2920
Rp2921
(dp2922
g26
g61
sg28
g2915
sg29
g2921
sg30
Nsg51
g52
sg53
Nsbag0
(g22
g2
Ntp2923
Rp2924
(dp2925
g26
g45
sg28
g2915
sg29
g2924
sg30
(lp2926
g0
(g22
g2
Ntp2927
Rp2928
(dp2929
g26
g61
sg28
g2924
sg29
g2928
sg30
Nsg51
g52
sg53
Nsbag0
(g22
g2
Ntp2930
Rp2931
(dp2932
g26
g45
sg28
g2924
sg29
g2931
sg30
(lp2933
g0
(g22
g2
Ntp2934
Rp2935
(dp2936
g26
g61
sg28
g2931
sg29
g2935
sg30
Nsg51
g52
sg53
Nsbag0
(g22
g2
Ntp2937
Rp2938
(dp2939
g26
g67
sg28
g2931
sg29
g2938
sg30
(lp2940
g0
(g22
g2
Ntp2941
Rp2942
(dp2943
g26
g107
sg28
g2938
sg29
g2942
sg30
Nsg51
g52
sg53
Nsbasg51
g73
sg53
Nsbasg51
g73
sg53
Nsbasg51
g73
sg53
Nsbasg51
g73
sg53
Nsbasg51
g74
sg53
Nsbasg51
g75
sg53
Nsbag0
(g22
g2
Ntp2944
Rp2945
(dp2946
g26
g35
sg28
g2903
sg29
g2945
sg30
(lp2947
g0
(g22
g2
Ntp2948
Rp2949
(dp2950
g26
g40
sg28
g2945
sg29
g2949
sg30
(lp2951
g0
(g22
g2
Ntp2952
Rp2953
(dp2954
g26
g45
sg28
g2949
sg29
g2953
sg30
(lp2955
g0
(g22
g2
Ntp2956
Rp2957
(dp2958
g26
g93
sg28
g2953
sg29
g2957
sg30
Nsg51
g52
sg53
Nsbag0
(g22
g2
Ntp2959
Rp2960
(dp2961
g26
g45
sg28
g2953
sg29
g2960
sg30
(lp2962
g0
(g22
g2
Ntp2963
Rp2964
(dp2965
g26
g107
sg28
g2960
sg29
g2964
sg30
Nsg51
g52
sg53
Nsbag0
(g22
g2
Ntp2966
Rp2967
(dp2968
g26
g67
sg28
g2960
sg29
g2967
sg30
(lp2969
g0
(g22
g2
Ntp2970
Rp2971
(dp2972
g26
g107
sg28
g2967
sg29
g2971
sg30
Nsg51
g52
sg53
Nsbasg51
g73
sg53
Nsbasg51
g73
sg53
Nsbasg51
g73
sg53
Nsbasg51
g74
sg53
Nsbasg51
g75
sg53
Nsbasg51
g75
sg53
Nsbag0
(g22
g2
Ntp2973
Rp2974
(dp2975
g26
g35
sg28
g2899
sg29
g2974
sg30
(lp2976
g0
(g22
g2
Ntp2977
Rp2978
(dp2979
g26
g40
sg28
g2974
sg29
g2978
sg30
(lp2980
g0
(g22
g2
Ntp2981
Rp2982
(dp2983
g26
g67
sg28
g2978
sg29
g2982
sg30
(lp2984
g0
(g22
g2
Ntp2985
Rp2986
(dp2987
g26
g93
sg28
g2982
sg29
g2986
sg30
Nsg51
g52
sg53
Nsbasg51
g73
sg53
Nsbasg51
g74
sg53
Nsbasg51
g75
sg53
Nsbasg51
g75
sg53
Nsbasg51
g76
sg53
Nsbsg77
F-924.6230772973818
sg78
g79
sg141
Nsg29
g143
sg183
Nsg184
g185
((dp2988
S'b o p'
p2989
I253
sS'o p p'
p2990
I41
sS'o o p'
p2991
I84
sS'b p p'
p2992
I134
stp2993
Rp2994
sg190
F-21.834300645613077
sg191
F1.0
sg192
g193
sg196
Nsg194
g195
sg197
I50
sbsbag0
(g8
g2
Ntp2995
Rp2996
(dp2997
g12
F-917.7978824741011
sg13
g0
(g14
g2
Ntp2998
Rp2999
(dp3000
g18
F-917.7978824741011
sg19
Nsg20
F1.0
sg21
g0
(g22
g2
Ntp3001
Rp3002
(dp3003
g26
g27
sg28
Nsg29
g3002
sg30
(lp3004
g0
(g22
g2
Ntp3005
Rp3006
(dp3007
g26
g136
sg28
g3002
sg29
g3006
sg30
(lp3008
g0
(g22
g2
Ntp3009
Rp3010
(dp3011
g26
g136
sg28
g3006
sg29
g3010
sg30
(lp3012
g0
(g22
g2
Ntp3013
Rp3014
(dp3015
g26
g35
sg28
g3010
sg29
g3014
sg30
(lp3016
g0
(g22
g2
Ntp3017
Rp3018
(dp3019
g26
g40
sg28
g3014
sg29
g3018
sg30
(lp3020
g0
(g22
g2
Ntp3021
Rp3022
(dp3023
g26
g45
sg28
g3018
sg29
g3022
sg30
(lp3024
g0
(g22
g2
Ntp3025
Rp3026
(dp3027
g26
g61
sg28
g3022
sg29
g3026
sg30
Nsg51
g52
sg53
Nsbag0
(g22
g2
Ntp3028
Rp3029
(dp3030
g26
g45
sg28
g3022
sg29
g3029
sg30
(lp3031
g0
(g22
g2
Ntp3032
Rp3033
(dp3034
g26
g61
sg28
g3029
sg29
g3033
sg30
Nsg51
g52
sg53
Nsbag0
(g22
g2
Ntp3035
Rp3036
(dp3037
g26
g45
sg28
g3029
sg29
g3036
sg30
(lp3038
g0
(g22
g2
Ntp3039
Rp3040
(dp3041
g26
g61
sg28
g3036
sg29
g3040
sg30
Nsg51
g52
sg53
Nsbag0
(g22
g2
Ntp3042
Rp3043
(dp3044
g26
g67
sg28
g3036
sg29
g3043
sg30
(lp3045
g0
(g22
g2
Ntp3046
Rp3047
(dp3048
g26
g61
sg28
g3043
sg29
g0
(g22
g2
Ntp3049
Rp3050
g3048
bsg30
Nsg51
g52
sg53
Nsbasg51
g73
sg53
Nsbasg51
g73
sg53
Nsbasg51
g73
sg53
Nsbasg51
g73
sg53
Nsbasg51
g74
sg53
Nsbasg51
g75
sg53
Nsbag0
(g22
g2
Ntp3051
Rp3052
(dp3053
g26
g35
sg28
g3010
sg29
g3052
sg30
(lp3054
g0
(g22
g2
Ntp3055
Rp3056
(dp3057
g26
g40
sg28
g3052
sg29
g3056
sg30
(lp3058
g0
(g22
g2
Ntp3059
Rp3060
(dp3061
g26
g45
sg28
g3056
sg29
g3060
sg30
(lp3062
g0
(g22
g2
Ntp3063
Rp3064
(dp3065
g26
g93
sg28
g3060
sg29
g3064
sg30
Nsg51
g52
sg53
Nsbag0
(g22
g2
Ntp3066
Rp3067
(dp3068
g26
g45
sg28
g3060
sg29
g3067
sg30
(lp3069
g0
(g22
g2
Ntp3070
Rp3071
(dp3072
g26
g107
sg28
g3067
sg29
g3071
sg30
Nsg51
g52
sg53
Nsbag0
(g22
g2
Ntp3073
Rp3074
(dp3075
g26
g67
sg28
g3067
sg29
g3074
sg30
(lp3076
g0
(g22
g2
Ntp3077
Rp3078
(dp3079
g26
g107
sg28
g3074
sg29
g3078
sg30
Nsg51
g52
sg53
Nsbasg51
g73
sg53
Nsbasg51
g73
sg53
Nsbasg51
g73
sg53
Nsbasg51
g74
sg53
Nsbasg51
g75
sg53
Nsbasg51
g75
sg53
Nsbag0
(g22
g2
Ntp3080
Rp3081
(dp3082
g26
g35
sg28
g3006
sg29
g3081
sg30
(lp3083
g0
(g22
g2
Ntp3084
Rp3085
(dp3086
g26
g40
sg28
g3081
sg29
g3085
sg30
(lp3087
g0
(g22
g2
Ntp3088
Rp3089
(dp3090
g26
g67
sg28
g3085
sg29
g3089
sg30
(lp3091
g0
(g22
g2
Ntp3092
Rp3093
(dp3094
g26
g93
sg28
g3089
sg29
g3093
sg30
Nsg51
g52
sg53
Nsbasg51
g73
sg53
Nsbasg51
g74
sg53
Nsbasg51
g75
sg53
Nsbasg51
g75
sg53
Nsbasg51
g76
sg53
Nsbsg77
F-895.963581828488
sg78
g79
sg141
Nsg29
g143
sg183
Nsg184
g185
((dp3095
S'b o p'
p3096
I337
sS'b p p'
p3097
I175
stp3098
Rp3099
sg190
F-21.834300645613077
sg191
F1.0
sg192
g193
sg196
Nsg194
g195
sg197
I50
sbsbag0
(g8
g2
Ntp3100
Rp3101
(dp3102
g12
F-957.2204865150705
sg13
g0
(g14
g2
Ntp3103
Rp3104
(dp3105
g18
F-957.2204865150705
sg19
Nsg20
F1.0
sg21
g0
(g22
g2
Ntp3106
Rp3107
(dp3108
g26
g27
sg28
Nsg29
g3107
sg30
(lp3109
g0
(g22
g2
Ntp3110
Rp3111
(dp3112
g26
g136
sg28
g3107
sg29
g3111
sg30
(lp3113
g0
(g22
g2
Ntp3114
Rp3115
(dp3116
g26
g136
sg28
g3111
sg29
g3115
sg30
(lp3117
g0
(g22
g2
Ntp3118
Rp3119
(dp3120
g26
g35
sg28
g3115
sg29
g3119
sg30
(lp3121
g0
(g22
g2
Ntp3122
Rp3123
(dp3124
g26
g40
sg28
g3119
sg29
g3123
sg30
(lp3125
g0
(g22
g2
Ntp3126
Rp3127
(dp3128
g26
g45
sg28
g3123
sg29
g3127
sg30
(lp3129
g0
(g22
g2
Ntp3130
Rp3131
(dp3132
g26
g61
sg28
g3127
sg29
g0
(g22
g2
Ntp3133
Rp3134
g3132
bsg30
Nsg51
g52
sg53
Nsbag0
(g22
g2
Ntp3135
Rp3136
(dp3137
g26
g45
sg28
g3127
sg29
g3136
sg30
(lp3138
g0
(g22
g2
Ntp3139
Rp3140
(dp3141
g26
g61
sg28
g3136
sg29
g3140
sg30
Nsg51
g52
sg53
Nsbag0
(g22
g2
Ntp3142
Rp3143
(dp3144
g26
g67
sg28
g3136
sg29
g3143
sg30
(lp3145
g0
(g22
g2
Ntp3146
Rp3147
(dp3148
g26
g107
sg28
g3143
sg29
g3147
sg30
Nsg51
g52
sg53
Nsbasg51
g73
sg53
Nsbasg51
g73
sg53
Nsbasg51
g73
sg53
Nsbasg51
g74
sg53
Nsbasg51
g75
sg53
Nsbag0
(g22
g2
Ntp3149
Rp3150
(dp3151
g26
g35
sg28
g3115
sg29
g3150
sg30
(lp3152
g0
(g22
g2
Ntp3153
Rp3154
(dp3155
g26
g40
sg28
g3150
sg29
g3154
sg30
(lp3156
g0
(g22
g2
Ntp3157
Rp3158
(dp3159
g26
g45
sg28
g3154
sg29
g3158
sg30
(lp3160
g0
(g22
g2
Ntp3161
Rp3162
(dp3163
g26
g93
sg28
g3158
sg29
g3162
sg30
Nsg51
g52
sg53
Nsbag0
(g22
g2
Ntp3164
Rp3165
(dp3166
g26
g45
sg28
g3158
sg29
g3165
sg30
(lp3167
g0
(g22
g2
Ntp3168
Rp3169
(dp3170
g26
g107
sg28
g3165
sg29
g3169
sg30
Nsg51
g52
sg53
Nsbag0
(g22
g2
Ntp3171
Rp3172
(dp3173
g26
g67
sg28
g3165
sg29
g3172
sg30
(lp3174
g0
(g22
g2
Ntp3175
Rp3176
(dp3177
g26
g107
sg28
g3172
sg29
g3176
sg30
Nsg51
g52
sg53
Nsbasg51
g73
sg53
Nsbasg51
g73
sg53
Nsbasg51
g73
sg53
Nsbasg51
g74
sg53
Nsbasg51
g75
sg53
Nsbasg51
g75
sg53
Nsbag0
(g22
g2
Ntp3178
Rp3179
(dp3180
g26
g35
sg28
g3111
sg29
g3179
sg30
(lp3181
g0
(g22
g2
Ntp3182
Rp3183
(dp3184
g26
g40
sg28
g3179
sg29
g3183
sg30
(lp3185
g0
(g22
g2
Ntp3186
Rp3187
(dp3188
g26
g67
sg28
g3183
sg29
g3187
sg30
(lp3189
g0
(g22
g2
Ntp3190
Rp3191
(dp3192
g26
g93
sg28
g3187
sg29
g3191
sg30
Nsg51
g52
sg53
Nsbasg51
g73
sg53
Nsbasg51
g74
sg53
Nsbasg51
g75
sg53
Nsbasg51
g75
sg53
Nsbasg51
g76
sg53
Nsbsg77
F-937.6887709624515
sg78
g79
sg141
Nsg29
g143
sg183
Nsg184
g185
((dp3193
S'b o p'
p3194
I222
sS'o p p'
p3195
I62
sS'o o p'
p3196
I118
sS'b p p'
p3197
I110
stp3198
Rp3199
sg190
F-19.531715552619033
sg191
F1.0
sg192
g193
sg196
Nsg194
g195
sg197
I50
sbsbag0
(g8
g2
Ntp3200
Rp3201
(dp3202
g12
F-669.0418472772348
sg13
g0
(g14
g2
Ntp3203
Rp3204
(dp3205
g18
F-669.0418472772348
sg19
Nsg20
F1.0
sg21
g0
(g22
g2
Ntp3206
Rp3207
(dp3208
g26
g27
sg28
Nsg29
g3207
sg30
(lp3209
g0
(g22
g2
Ntp3210
Rp3211
(dp3212
g26
g136
sg28
g3207
sg29
g3211
sg30
(lp3213
g0
(g22
g2
Ntp3214
Rp3215
(dp3216
g26
g136
sg28
g3211
sg29
g3215
sg30
(lp3217
g0
(g22
g2
Ntp3218
Rp3219
(dp3220
g26
g35
sg28
g3215
sg29
g3219
sg30
(lp3221
g0
(g22
g2
Ntp3222
Rp3223
(dp3224
g26
g40
sg28
g3219
sg29
g3223
sg30
(lp3225
g0
(g22
g2
Ntp3226
Rp3227
(dp3228
g26
g45
sg28
g3223
sg29
g3227
sg30
(lp3229
g0
(g22
g2
Ntp3230
Rp3231
(dp3232
g26
g72
sg28
g3227
sg29
g3231
sg30
Nsg51
g52
sg53
Nsbag0
(g22
g2
Ntp3233
Rp3234
(dp3235
g26
g45
sg28
g3227
sg29
g3234
sg30
(lp3236
g0
(g22
g2
Ntp3237
Rp3238
(dp3239
g26
g93
sg28
g3234
sg29
g0
(g22
g2
Ntp3240
Rp3241
g3239
bsg30
Nsg51
g52
sg53
Nsbag0
(g22
g2
Ntp3242
Rp3243
(dp3244
g26
g67
sg28
g3234
sg29
g3243
sg30
(lp3245
g0
(g22
g2
Ntp3246
Rp3247
(dp3248
g26
g61
sg28
g3243
sg29
g3247
sg30
Nsg51
g52
sg53
Nsbasg51
g73
sg53
Nsbasg51
g73
sg53
Nsbasg51
g73
sg53
Nsbasg51
g74
sg53
Nsbasg51
g75
sg53
Nsbag0
(g22
g2
Ntp3249
Rp3250
(dp3251
g26
g35
sg28
g3215
sg29
g3250
sg30
(lp3252
g0
(g22
g2
Ntp3253
Rp3254
(dp3255
g26
g40
sg28
g3250
sg29
g3254
sg30
(lp3256
g0
(g22
g2
Ntp3257
Rp3258
(dp3259
g26
g45
sg28
g3254
sg29
g3258
sg30
(lp3260
g0
(g22
g2
Ntp3261
Rp3262
(dp3263
g26
g93
sg28
g3258
sg29
g3262
sg30
Nsg51
g52
sg53
Nsbag0
(g22
g2
Ntp3264
Rp3265
(dp3266
g26
g45
sg28
g3258
sg29
g3265
sg30
(lp3267
g0
(g22
g2
Ntp3268
Rp3269
(dp3270
g26
g107
sg28
g3265
sg29
g3269
sg30
Nsg51
g52
sg53
Nsbag0
(g22
g2
Ntp3271
Rp3272
(dp3273
g26
g45
sg28
g3265
sg29
g3272
sg30
(lp3274
g0
(g22
g2
Ntp3275
Rp3276
(dp3277
g26
g72
sg28
g3272
sg29
g3276
sg30
Nsg51
g52
sg53
Nsbag0
(g22
g2
Ntp3278
Rp3279
(dp3280
g26
g67
sg28
g3272
sg29
g3279
sg30
(lp3281
g0
(g22
g2
Ntp3282
Rp3283
(dp3284
g26
g93
sg28
g3279
sg29
g3283
sg30
Nsg51
g52
sg53
Nsbasg51
g73
sg53
Nsbasg51
g73
sg53
Nsbasg51
g73
sg53
Nsbasg51
g73
sg53
Nsbasg51
g74
sg53
Nsbasg51
g75
sg53
Nsbasg51
g75
sg53
Nsbag0
(g22
g2
Ntp3285
Rp3286
(dp3287
g26
g35
sg28
g3211
sg29
g3286
sg30
(lp3288
g0
(g22
g2
Ntp3289
Rp3290
(dp3291
g26
g40
sg28
g3286
sg29
g3290
sg30
(lp3292
g0
(g22
g2
Ntp3293
Rp3294
(dp3295
g26
g45
sg28
g3290
sg29
g3294
sg30
(lp3296
g0
(g22
g2
Ntp3297
Rp3298
(dp3299
g26
g93
sg28
g3294
sg29
g3298
sg30
Nsg51
g52
sg53
Nsbag0
(g22
g2
Ntp3300
Rp3301
(dp3302
g26
g45
sg28
g3294
sg29
g3301
sg30
(lp3303
g0
(g22
g2
Ntp3304
Rp3305
(dp3306
g26
g93
sg28
g3301
sg29
g3305
sg30
Nsg51
g52
sg53
Nsbag0
(g22
g2
Ntp3307
Rp3308
(dp3309
g26
g67
sg28
g3301
sg29
g3308
sg30
(lp3310
g0
(g22
g2
Ntp3311
Rp3312
(dp3313
g26
g50
sg28
g3308
sg29
g3312
sg30
Nsg51
g52
sg53
Nsbasg51
g73
sg53
Nsbasg51
g73
sg53
Nsbasg51
g73
sg53
Nsbasg51
g74
sg53
Nsbasg51
g75
sg53
Nsbasg51
g75
sg53
Nsbasg51
g76
sg53
Nsbsg77
F-642.6023764456336
sg78
g79
sg141
Nsg29
g143
sg183
Nsg184
g185
((dp3314
S'b i p'
p3315
I24
sS'p i m'
p3316
I9
sS'b o p'
p3317
I35
sS'i i p'
p3318
I25
sS'p i p'
p3319
I37
sS'b i m'
p3320
I12
sS'i p m'
p3321
I25
sS'p o p'
p3322
I19
sS'i o m'
p3323
I18
sS'b p p'
p3324
I56
sS'p p m'
p3325
I21
sS'b o m'
p3326
I17
sS'i i m'
p3327
I16
sS'p p p'
p3328
I62
sS'b p m'
p3329
I31
sS'i o p'
p3330
I41
sS'i p p'
p3331
I53
sS'p o m'
p3332
I11
stp3333
Rp3334
sg190
F-26.43947083160117
sg191
F1.0
sg192
g193
sg196
Nsg194
g195
sg197
I50
sbsbag0
(g8
g2
Ntp3335
Rp3336
(dp3337
g12
F-1104.1548098841427
sg13
g0
(g14
g2
Ntp3338
Rp3339
(dp3340
g18
F-1104.1548098841427
sg19
Nsg20
F1.0
sg21
g0
(g22
g2
Ntp3341
Rp3342
(dp3343
g26
g27
sg28
Nsg29
g0
(g22
g2
Ntp3344
Rp3345
g3343
bsg30
(lp3346
g0
(g22
g2
Ntp3347
Rp3348
(dp3349
g26
g136
sg28
g3342
sg29
g3348
sg30
(lp3350
g0
(g22
g2
Ntp3351
Rp3352
(dp3353
g26
g136
sg28
g3348
sg29
g3352
sg30
(lp3354
g0
(g22
g2
Ntp3355
Rp3356
(dp3357
g26
g35
sg28
g3352
sg29
g3356
sg30
(lp3358
g0
(g22
g2
Ntp3359
Rp3360
(dp3361
g26
g40
sg28
g3356
sg29
g3360
sg30
(lp3362
g0
(g22
g2
Ntp3363
Rp3364
(dp3365
g26
g45
sg28
g3360
sg29
g3364
sg30
(lp3366
g0
(g22
g2
Ntp3367
Rp3368
(dp3369
g26
g50
sg28
g3364
sg29
g3368
sg30
Nsg51
g52
sg53
Nsbag0
(g22
g2
Ntp3370
Rp3371
(dp3372
g26
g45
sg28
g3364
sg29
g3371
sg30
(lp3373
g0
(g22
g2
Ntp3374
Rp3375
(dp3376
g26
g61
sg28
g3371
sg29
g3375
sg30
Nsg51
g52
sg53
Nsbag0
(g22
g2
Ntp3377
Rp3378
(dp3379
g26
g67
sg28
g3371
sg29
g3378
sg30
(lp3380
g0
(g22
g2
Ntp3381
Rp3382
(dp3383
g26
g107
sg28
g3378
sg29
g3382
sg30
Nsg51
g52
sg53
Nsbasg51
g73
sg53
Nsbasg51
g73
sg53
Nsbasg51
g73
sg53
Nsbasg51
g74
sg53
Nsbasg51
g75
sg53
Nsbag0
(g22
g2
Ntp3384
Rp3385
(dp3386
g26
g35
sg28
g3352
sg29
g3385
sg30
(lp3387
g0
(g22
g2
Ntp3388
Rp3389
(dp3390
g26
g40
sg28
g3385
sg29
g3389
sg30
(lp3391
g0
(g22
g2
Ntp3392
Rp3393
(dp3394
g26
g45
sg28
g3389
sg29
g3393
sg30
(lp3395
g0
(g22
g2
Ntp3396
Rp3397
(dp3398
g26
g93
sg28
g3393
sg29
g3397
sg30
Nsg51
g52
sg53
Nsbag0
(g22
g2
Ntp3399
Rp3400
(dp3401
g26
g45
sg28
g3393
sg29
g3400
sg30
(lp3402
g0
(g22
g2
Ntp3403
Rp3404
(dp3405
g26
g50
sg28
g3400
sg29
g3404
sg30
Nsg51
g52
sg53
Nsbag0
(g22
g2
Ntp3406
Rp3407
(dp3408
g26
g67
sg28
g3400
sg29
g3407
sg30
(lp3409
g0
(g22
g2
Ntp3410
Rp3411
(dp3412
g26
g107
sg28
g3407
sg29
g3411
sg30
Nsg51
g52
sg53
Nsbasg51
g73
sg53
Nsbasg51
g73
sg53
Nsbasg51
g73
sg53
Nsbasg51
g74
sg53
Nsbasg51
g75
sg53
Nsbasg51
g75
sg53
Nsbag0
(g22
g2
Ntp3413
Rp3414
(dp3415
g26
g35
sg28
g3348
sg29
g3414
sg30
(lp3416
g0
(g22
g2
Ntp3417
Rp3418
(dp3419
g26
g40
sg28
g3414
sg29
g3418
sg30
(lp3420
g0
(g22
g2
Ntp3421
Rp3422
(dp3423
g26
g67
sg28
g3418
sg29
g3422
sg30
(lp3424
g0
(g22
g2
Ntp3425
Rp3426
(dp3427
g26
g93
sg28
g3422
sg29
g3426
sg30
Nsg51
g52
sg53
Nsbasg51
g73
sg53
Nsbasg51
g74
sg53
Nsbasg51
g75
sg53
Nsbasg51
g75
sg53
Nsbasg51
g76
sg53
Nsbsg77
F-1084.6230943315236
sg78
g79
sg141
Nsg29
g143
sg183
Nsg184
g185
((dp3428
S'b m p'
p3429
I53
sS'b p p'
p3430
I51
sS'm m p'
p3431
I55
sS'o m p'
p3432
I73
sS'b o p'
p3433
I51
sS'm p p'
p3434
I47
sS'o p p'
p3435
I48
sS'o o p'
p3436
I73
sS'm o p'
p3437
I61
stp3438
Rp3439
sg190
F-19.531715552619033
sg191
F1.0
sg192
g193
sg196
Nsg194
g195
sg197
I50
sbsbag0
(g8
g2
Ntp3440
Rp3441
(dp3442
g12
F-1029.2275871405925
sg13
g0
(g14
g2
Ntp3443
Rp3444
(dp3445
g18
F-1029.2275871405925
sg19
Nsg20
F1.0
sg21
g0
(g22
g2
Ntp3446
Rp3447
(dp3448
g26
g27
sg28
Nsg29
g3447
sg30
(lp3449
g0
(g22
g2
Ntp3450
Rp3451
(dp3452
g26
g136
sg28
g3447
sg29
g3451
sg30
(lp3453
g0
(g22
g2
Ntp3454
Rp3455
(dp3456
g26
g136
sg28
g3451
sg29
g3455
sg30
(lp3457
g0
(g22
g2
Ntp3458
Rp3459
(dp3460
g26
g35
sg28
g3455
sg29
g3459
sg30
(lp3461
g0
(g22
g2
Ntp3462
Rp3463
(dp3464
g26
g40
sg28
g3459
sg29
g3463
sg30
(lp3465
g0
(g22
g2
Ntp3466
Rp3467
(dp3468
g26
g45
sg28
g3463
sg29
g3467
sg30
(lp3469
g0
(g22
g2
Ntp3470
Rp3471
(dp3472
g26
g50
sg28
g3467
sg29
g3471
sg30
Nsg51
g52
sg53
Nsbag0
(g22
g2
Ntp3473
Rp3474
(dp3475
g26
g45
sg28
g3467
sg29
g3474
sg30
(lp3476
g0
(g22
g2
Ntp3477
Rp3478
(dp3479
g26
g61
sg28
g3474
sg29
g3478
sg30
Nsg51
g52
sg53
Nsbag0
(g22
g2
Ntp3480
Rp3481
(dp3482
g26
g67
sg28
g3474
sg29
g3481
sg30
(lp3483
g0
(g22
g2
Ntp3484
Rp3485
(dp3486
g26
g107
sg28
g3481
sg29
g3485
sg30
Nsg51
g52
sg53
Nsbasg51
g73
sg53
Nsbasg51
g73
sg53
Nsbasg51
g73
sg53
Nsbasg51
g74
sg53
Nsbasg51
g75
sg53
Nsbag0
(g22
g2
Ntp3487
Rp3488
(dp3489
g26
g35
sg28
g3455
sg29
g3488
sg30
(lp3490
g0
(g22
g2
Ntp3491
Rp3492
(dp3493
g26
g40
sg28
g3488
sg29
g3492
sg30
(lp3494
g0
(g22
g2
Ntp3495
Rp3496
(dp3497
g26
g45
sg28
g3492
sg29
g3496
sg30
(lp3498
g0
(g22
g2
Ntp3499
Rp3500
(dp3501
g26
g93
sg28
g3496
sg29
g3500
sg30
Nsg51
g52
sg53
Nsbag0
(g22
g2
Ntp3502
Rp3503
(dp3504
g26
g45
sg28
g3496
sg29
g3503
sg30
(lp3505
g0
(g22
g2
Ntp3506
Rp3507
(dp3508
g26
g107
sg28
g3503
sg29
g0
(g22
g2
Ntp3509
Rp3510
g3508
bsg30
Nsg51
g52
sg53
Nsbag0
(g22
g2
Ntp3511
Rp3512
(dp3513
g26
g67
sg28
g3503
sg29
g3512
sg30
(lp3514
g0
(g22
g2
Ntp3515
Rp3516
(dp3517
g26
g107
sg28
g3512
sg29
g3516
sg30
Nsg51
g52
sg53
Nsbasg51
g73
sg53
Nsbasg51
g73
sg53
Nsbasg51
g73
sg53
Nsbasg51
g74
sg53
Nsbasg51
g75
sg53
Nsbasg51
g75
sg53
Nsbag0
(g22
g2
Ntp3518
Rp3519
(dp3520
g26
g35
sg28
g3451
sg29
g3519
sg30
(lp3521
g0
(g22
g2
Ntp3522
Rp3523
(dp3524
g26
g40
sg28
g3519
sg29
g3523
sg30
(lp3525
g0
(g22
g2
Ntp3526
Rp3527
(dp3528
g26
g67
sg28
g3523
sg29
g3527
sg30
(lp3529
g0
(g22
g2
Ntp3530
Rp3531
(dp3532
g26
g93
sg28
g3527
sg29
g3531
sg30
Nsg51
g52
sg53
Nsbasg51
g73
sg53
Nsbasg51
g74
sg53
Nsbasg51
g75
sg53
Nsbasg51
g75
sg53
Nsbasg51
g76
sg53
Nsbsg77
F-1009.6958715879734
sg78
g79
sg141
Nsg29
g143
sg183
Nsg184
g185
((dp3533
S'b o p'
p3534
I108
sS'b p p'
p3535
I69
sS'm p p'
p3536
I54
sS'o p p'
p3537
I56
sS'o o p'
p3538
I119
sS'm o p'
p3539
I106
stp3540
Rp3541
sg190
F-19.531715552619033
sg191
F1.0
sg192
g193
sg196
Nsg194
g195
sg197
I50
sbsbag0
(g8
g2
Ntp3542
Rp3543
(dp3544
g12
F-873.6812677582582
sg13
g0
(g14
g2
Ntp3545
Rp3546
(dp3547
g18
F-873.6812677582582
sg19
Nsg20
F1.0
sg21
g0
(g22
g2
Ntp3548
Rp3549
(dp3550
g26
g27
sg28
Nsg29
g3549
sg30
(lp3551
g0
(g22
g2
Ntp3552
Rp3553
(dp3554
g26
g136
sg28
g3549
sg29
g3553
sg30
(lp3555
g0
(g22
g2
Ntp3556
Rp3557
(dp3558
g26
g136
sg28
g3553
sg29
g3557
sg30
(lp3559
g0
(g22
g2
Ntp3560
Rp3561
(dp3562
g26
g35
sg28
g3557
sg29
g3561
sg30
(lp3563
g0
(g22
g2
Ntp3564
Rp3565
(dp3566
g26
g40
sg28
g3561
sg29
g3565
sg30
(lp3567
g0
(g22
g2
Ntp3568
Rp3569
(dp3570
g26
g45
sg28
g3565
sg29
g3569
sg30
(lp3571
g0
(g22
g2
Ntp3572
Rp3573
(dp3574
g26
g61
sg28
g3569
sg29
g3573
sg30
Nsg51
g52
sg53
Nsbag0
(g22
g2
Ntp3575
Rp3576
(dp3577
g26
g45
sg28
g3569
sg29
g3576
sg30
(lp3578
g0
(g22
g2
Ntp3579
Rp3580
(dp3581
g26
g61
sg28
g3576
sg29
g3580
sg30
Nsg51
g52
sg53
Nsbag0
(g22
g2
Ntp3582
Rp3583
(dp3584
g26
g45
sg28
g3576
sg29
g3583
sg30
(lp3585
g0
(g22
g2
Ntp3586
Rp3587
(dp3588
g26
g61
sg28
g3583
sg29
g3587
sg30
Nsg51
g52
sg53
Nsbag0
(g22
g2
Ntp3589
Rp3590
(dp3591
g26
g67
sg28
g3583
sg29
g3590
sg30
(lp3592
g0
(g22
g2
Ntp3593
Rp3594
(dp3595
g26
g61
sg28
g3590
sg29
g3594
sg30
Nsg51
g52
sg53
Nsbasg51
g73
sg53
Nsbasg51
g73
sg53
Nsbasg51
g73
sg53
Nsbasg51
g73
sg53
Nsbasg51
g74
sg53
Nsbasg51
g75
sg53
Nsbag0
(g22
g2
Ntp3596
Rp3597
(dp3598
g26
g35
sg28
g3557
sg29
g3597
sg30
(lp3599
g0
(g22
g2
Ntp3600
Rp3601
(dp3602
g26
g40
sg28
g3597
sg29
g3601
sg30
(lp3603
g0
(g22
g2
Ntp3604
Rp3605
(dp3606
g26
g45
sg28
g3601
sg29
g0
(g22
g2
Ntp3607
Rp3608
g3606
bsg30
(lp3609
g0
(g22
g2
Ntp3610
Rp3611
(dp3612
g26
g107
sg28
g3605
sg29
g3611
sg30
Nsg51
g52
sg53
Nsbag0
(g22
g2
Ntp3613
Rp3614
(dp3615
g26
g67
sg28
g3605
sg29
g3614
sg30
(lp3616
g0
(g22
g2
Ntp3617
Rp3618
(dp3619
g26
g107
sg28
g3614
sg29
g3618
sg30
Nsg51
g52
sg53
Nsbasg51
g73
sg53
Nsbasg51
g73
sg53
Nsbasg51
g74
sg53
Nsbasg51
g75
sg53
Nsbasg51
g75
sg53
Nsbag0
(g22
g2
Ntp3620
Rp3621
(dp3622
g26
g35
sg28
g3553
sg29
g3621
sg30
(lp3623
g0
(g22
g2
Ntp3624
Rp3625
(dp3626
g26
g40
sg28
g3621
sg29
g3625
sg30
(lp3627
g0
(g22
g2
Ntp3628
Rp3629
(dp3630
g26
g67
sg28
g3625
sg29
g3629
sg30
(lp3631
g0
(g22
g2
Ntp3632
Rp3633
(dp3634
g26
g93
sg28
g3629
sg29
g3633
sg30
Nsg51
g52
sg53
Nsbasg51
g73
sg53
Nsbasg51
g74
sg53
Nsbasg51
g75
sg53
Nsbasg51
g75
sg53
Nsbasg51
g76
sg53
Nsbsg77
F-854.1495522056391
sg78
g79
sg141
Nsg29
g143
sg183
Nsg184
g185
((dp3635
S'b o p'
p3636
I512
stp3637
Rp3638
sg190
F-19.53171555261903
sg191
F1.0
sg192
g193
sg196
Nsg194
g195
sg197
I50
sbsbag0
(g8
g2
Ntp3639
Rp3640
(dp3641
g12
F-1713.2706886459905
sg13
g0
(g14
g2
Ntp3642
Rp3643
(dp3644
g18
F-1713.2706886459905
sg19
Nsg20
F1.0
sg21
g0
(g22
g2
Ntp3645
Rp3646
(dp3647
g26
g27
sg28
Nsg29
g3646
sg30
(lp3648
g0
(g22
g2
Ntp3649
Rp3650
(dp3651
g26
g35
sg28
g3646
sg29
g3650
sg30
(lp3652
g0
(g22
g2
Ntp3653
Rp3654
(dp3655
g26
g40
sg28
g3650
sg29
g3654
sg30
(lp3656
g0
(g22
g2
Ntp3657
Rp3658
(dp3659
g26
g45
sg28
g3654
sg29
g0
(g22
g2
Ntp3660
Rp3661
g3659
bsg30
(lp3662
g0
(g22
g2
Ntp3663
Rp3664
(dp3665
g26
g107
sg28
g3658
sg29
g3664
sg30
Nsg51
g52
sg53
Nsbag0
(g22
g2
Ntp3666
Rp3667
(dp3668
g26
g67
sg28
g3658
sg29
g3667
sg30
(lp3669
g0
(g22
g2
Ntp3670
Rp3671
(dp3672
g26
g107
sg28
g3667
sg29
g3671
sg30
Nsg51
g52
sg53
Nsbasg51
g73
sg53
Nsbasg51
g73
sg53
Nsbasg51
g74
sg53
Nsbasg51
g75
sg53
Nsbasg51
g76
sg53
Nsbsg77
F-1708.2600533518942
sg78
g79
sg141
Nsg29
g143
sg183
Nsg184
g185
((dp3673
g107
I512
stp3674
Rp3675
sg190
F-5.0106352940962555
sg191
F1.0
sg192
g193
sg196
Nsg194
g195
sg197
I50
sbsbag0
(g8
g2
Ntp3676
Rp3677
(dp3678
g12
F-1713.2706886459905
sg13
g0
(g14
g2
Ntp3679
Rp3680
(dp3681
g18
F-1713.2706886459905
sg19
Nsg20
F1.0
sg21
g0
(g22
g2
Ntp3682
Rp3683
(dp3684
g26
g27
sg28
Nsg29
g3683
sg30
(lp3685
g0
(g22
g2
Ntp3686
Rp3687
(dp3688
g26
g35
sg28
g3683
sg29
g3687
sg30
(lp3689
g0
(g22
g2
Ntp3690
Rp3691
(dp3692
g26
g40
sg28
g3687
sg29
g3691
sg30
(lp3693
g0
(g22
g2
Ntp3694
Rp3695
(dp3696
g26
g45
sg28
g3691
sg29
g0
(g22
g2
Ntp3697
Rp3698
g3696
bsg30
(lp3699
g0
(g22
g2
Ntp3700
Rp3701
(dp3702
g26
g50
sg28
g3695
sg29
g3701
sg30
Nsg51
g52
sg53
Nsbag0
(g22
g2
Ntp3703
Rp3704
(dp3705
g26
g67
sg28
g3695
sg29
g3704
sg30
(lp3706
g0
(g22
g2
Ntp3707
Rp3708
(dp3709
g26
g50
sg28
g3704
sg29
g3708
sg30
Nsg51
g52
sg53
Nsbasg51
g73
sg53
Nsbasg51
g73
sg53
Nsbasg51
g74
sg53
Nsbasg51
g75
sg53
Nsbasg51
g76
sg53
Nsbsg77
F-1708.2600533518942
sg78
g79
sg141
Nsg29
g143
sg183
Nsg184
g185
((dp3710
g50
I512
stp3711
Rp3712
sg190
F-5.0106352940962555
sg191
F1.0
sg192
g193
sg196
Nsg194
g195
sg197
I50
sbsbag0
(g8
g2
Ntp3713
Rp3714
(dp3715
g12
F-1714.7747660427667
sg13
g0
(g14
g2
Ntp3716
Rp3717
(dp3718
g18
F-1714.7747660427667
sg19
Nsg20
F1.0
sg21
g0
(g22
g2
Ntp3719
Rp3720
(dp3721
g26
g27
sg28
Nsg29
g3720
sg30
(lp3722
g0
(g22
g2
Ntp3723
Rp3724
(dp3725
g26
g136
sg28
g3720
sg29
g3724
sg30
(lp3726
g0
(g22
g2
Ntp3727
Rp3728
(dp3729
g26
g35
sg28
g3724
sg29
g3728
sg30
(lp3730
g0
(g22
g2
Ntp3731
Rp3732
(dp3733
g26
g40
sg28
g3728
sg29
g3732
sg30
(lp3734
g0
(g22
g2
Ntp3735
Rp3736
(dp3737
g26
g67
sg28
g3732
sg29
g3736
sg30
(lp3738
g0
(g22
g2
Ntp3739
Rp3740
(dp3741
g26
g61
sg28
g3736
sg29
g0
(g22
g2
Ntp3742
Rp3743
g3741
bsg30
Nsg51
g52
sg53
Nsbasg51
g73
sg53
Nsbasg51
g74
sg53
Nsbasg51
g75
sg53
Nsbag0
(g22
g2
Ntp3744
Rp3745
(dp3746
g26
g35
sg28
g3724
sg29
g3745
sg30
(lp3747
g0
(g22
g2
Ntp3748
Rp3749
(dp3750
g26
g40
sg28
g3745
sg29
g3749
sg30
(lp3751
g0
(g22
g2
Ntp3752
Rp3753
(dp3754
g26
g67
sg28
g3749
sg29
g3753
sg30
(lp3755
g0
(g22
g2
Ntp3756
Rp3757
(dp3758
g26
g50
sg28
g3753
sg29
g3757
sg30
Nsg51
g52
sg53
Nsbasg51
g73
sg53
Nsbasg51
g74
sg53
Nsbasg51
g75
sg53
Nsbasg51
g75
sg53
Nsbasg51
g76
sg53
Nsbsg77
F-1708.2600533518942
sg78
g79
sg141
Nsg29
g143
sg183
Nsg184
g185
((dp3759
S'b m'
p3760
I512
stp3761
Rp3762
sg190
F-6.514712690872528
sg191
F1.0
sg192
g193
sg196
Nsg194
g195
sg197
I50
sbsbag0
(g8
g2
Ntp3763
Rp3764
(dp3765
g12
F-1713.2706886459905
sg13
g0
(g14
g2
Ntp3766
Rp3767
(dp3768
g18
F-1713.2706886459905
sg19
Nsg20
F1.0
sg21
g0
(g22
g2
Ntp3769
Rp3770
(dp3771
g26
g27
sg28
Nsg29
g3770
sg30
(lp3772
g0
(g22
g2
Ntp3773
Rp3774
(dp3775
g26
g35
sg28
g3770
sg29
g3774
sg30
(lp3776
g0
(g22
g2
Ntp3777
Rp3778
(dp3779
g26
g40
sg28
g3774
sg29
g3778
sg30
(lp3780
g0
(g22
g2
Ntp3781
Rp3782
(dp3783
g26
g45
sg28
g3778
sg29
g3782
sg30
(lp3784
g0
(g22
g2
Ntp3785
Rp3786
(dp3787
g26
g61
sg28
g3782
sg29
g3786
sg30
Nsg51
g52
sg53
Nsbag0
(g22
g2
Ntp3788
Rp3789
(dp3790
g26
g67
sg28
g3782
sg29
g3789
sg30
(lp3791
g0
(g22
g2
Ntp3792
Rp3793
(dp3794
g26
g61
sg28
g3789
sg29
g0
(g22
g2
Ntp3795
Rp3796
g3794
bsg30
Nsg51
g52
sg53
Nsbasg51
g73
sg53
Nsbasg51
g73
sg53
Nsbasg51
g74
sg53
Nsbasg51
g75
sg53
Nsbasg51
g76
sg53
Nsbsg77
F-1708.2600533518942
sg78
g79
sg141
Nsg29
g143
sg183
Nsg184
g185
((dp3797
g61
I512
stp3798
Rp3799
sg190
F-5.0106352940962555
sg191
F1.0
sg192
g193
sg196
Nsg194
g195
sg197
I50
sbsbag0
(g8
g2
Ntp3800
Rp3801
(dp3802
g12
F-1713.2706886459905
sg13
g0
(g14
g2
Ntp3803
Rp3804
(dp3805
g18
F-1713.2706886459905
sg19
Nsg20
F1.0
sg21
g0
(g22
g2
Ntp3806
Rp3807
(dp3808
g26
g27
sg28
Nsg29
g3807
sg30
(lp3809
g0
(g22
g2
Ntp3810
Rp3811
(dp3812
g26
g35
sg28
g3807
sg29
g3811
sg30
(lp3813
g0
(g22
g2
Ntp3814
Rp3815
(dp3816
g26
g40
sg28
g3811
sg29
g3815
sg30
(lp3817
g0
(g22
g2
Ntp3818
Rp3819
(dp3820
g26
g45
sg28
g3815
sg29
g3819
sg30
(lp3821
g0
(g22
g2
Ntp3822
Rp3823
(dp3824
g26
g61
sg28
g3819
sg29
g3823
sg30
Nsg51
g52
sg53
Nsbag0
(g22
g2
Ntp3825
Rp3826
(dp3827
g26
g67
sg28
g3819
sg29
g3826
sg30
(lp3828
g0
(g22
g2
Ntp3829
Rp3830
(dp3831
g26
g50
sg28
g3826
sg29
g0
(g22
g2
Ntp3832
Rp3833
g3831
bsg30
Nsg51
g52
sg53
Nsbasg51
g73
sg53
Nsbasg51
g73
sg53
Nsbasg51
g74
sg53
Nsbasg51
g75
sg53
Nsbasg51
g76
sg53
Nsbsg77
F-1708.2600533518942
sg78
g79
sg141
Nsg29
g143
sg183
Nsg184
g185
((dp3834
g61
I262
sg50
I250
stp3835
Rp3836
sg190
F-5.0106352940962555
sg191
F1.0
sg192
g193
sg196
Nsg194
g195
sg197
I50
sbsbag0
(g8
g2
Ntp3837
Rp3838
(dp3839
g12
F-1713.2706886459905
sg13
g0
(g14
g2
Ntp3840
Rp3841
(dp3842
g18
F-1713.2706886459905
sg19
Nsg20
F1.0
sg21
g0
(g22
g2
Ntp3843
Rp3844
(dp3845
g26
g27
sg28
Nsg29
g3844
sg30
(lp3846
g0
(g22
g2
Ntp3847
Rp3848
(dp3849
g26
g35
sg28
g3844
sg29
g3848
sg30
(lp3850
g0
(g22
g2
Ntp3851
Rp3852
(dp3853
g26
g40
sg28
g3848
sg29
g0
(g22
g2
Ntp3854
Rp3855
g3853
bsg30
(lp3856
g0
(g22
g2
Ntp3857
Rp3858
(dp3859
g26
g45
sg28
g3852
sg29
g3858
sg30
(lp3860
g0
(g22
g2
Ntp3861
Rp3862
(dp3863
g26
g72
sg28
g3858
sg29
g3862
sg30
Nsg51
g52
sg53
Nsbag0
(g22
g2
Ntp3864
Rp3865
(dp3866
g26
g67
sg28
g3858
sg29
g3865
sg30
(lp3867
g0
(g22
g2
Ntp3868
Rp3869
(dp3870
g26
g93
sg28
g3865
sg29
g3869
sg30
Nsg51
g52
sg53
Nsbasg51
g73
sg53
Nsbasg51
g73
sg53
Nsbasg51
g74
sg53
Nsbasg51
g75
sg53
Nsbasg51
g76
sg53
Nsbsg77
F-1708.2600533518942
sg78
g79
sg141
Nsg29
g143
sg183
Nsg184
g185
((dp3871
g72
I257
sg93
I255
stp3872
Rp3873
sg190
F-5.0106352940962555
sg191
F1.0
sg192
g193
sg196
Nsg194
g195
sg197
I50
sbsbag0
(g8
g2
Ntp3874
Rp3875
(dp3876
g12
F-1715.5732737389844
sg13
g0
(g14
g2
Ntp3877
Rp3878
(dp3879
g18
F-1715.5732737389844
sg19
Nsg20
F1.0
sg21
g0
(g22
g2
Ntp3880
Rp3881
(dp3882
g26
g27
sg28
Nsg29
g3881
sg30
(lp3883
g0
(g22
g2
Ntp3884
Rp3885
(dp3886
g26
g35
sg28
g3881
sg29
g3885
sg30
(lp3887
g0
(g22
g2
Ntp3888
Rp3889
(dp3890
g26
g40
sg28
g3885
sg29
g0
(g22
g2
Ntp3891
Rp3892
g3890
bsg30
(lp3893
g0
(g22
g2
Ntp3894
Rp3895
(dp3896
g26
g45
sg28
g3889
sg29
g3895
sg30
(lp3897
g0
(g22
g2
Ntp3898
Rp3899
(dp3900
g26
g107
sg28
g3895
sg29
g3899
sg30
Nsg51
g52
sg53
Nsbag0
(g22
g2
Ntp3901
Rp3902
(dp3903
g26
g45
sg28
g3895
sg29
g3902
sg30
(lp3904
g0
(g22
g2
Ntp3905
Rp3906
(dp3907
g26
g61
sg28
g3902
sg29
g3906
sg30
Nsg51
g52
sg53
Nsbag0
(g22
g2
Ntp3908
Rp3909
(dp3910
g26
g67
sg28
g3902
sg29
g3909
sg30
(lp3911
g0
(g22
g2
Ntp3912
Rp3913
(dp3914
g26
g50
sg28
g3909
sg29
g3913
sg30
Nsg51
g52
sg53
Nsbasg51
g73
sg53
Nsbasg51
g73
sg53
Nsbasg51
g73
sg53
Nsbasg51
g74
sg53
Nsbasg51
g75
sg53
Nsbasg51
g76
sg53
Nsbsg77
F-1708.2600533518942
sg78
g79
sg141
Nsg29
g143
sg183
Nsg184
g185
((dp3915
g61
I181
sg50
I178
sg107
I153
stp3916
Rp3917
sg190
F-7.313220387090301
sg191
F1.0
sg192
g193
sg196
Nsg194
g195
sg197
I50
sbsbag0
(g8
g2
Ntp3918
Rp3919
(dp3920
g12
F-1715.5732737389844
sg13
g0
(g14
g2
Ntp3921
Rp3922
(dp3923
g18
F-1715.5732737389844
sg19
Nsg20
F1.0
sg21
g0
(g22
g2
Ntp3924
Rp3925
(dp3926
g26
g27
sg28
Nsg29
g3925
sg30
(lp3927
g0
(g22
g2
Ntp3928
Rp3929
(dp3930
g26
g35
sg28
g3925
sg29
g3929
sg30
(lp3931
g0
(g22
g2
Ntp3932
Rp3933
(dp3934
g26
g40
sg28
g3929
sg29
g3933
sg30
(lp3935
g0
(g22
g2
Ntp3936
Rp3937
(dp3938
g26
g45
sg28
g3933
sg29
g0
(g22
g2
Ntp3939
Rp3940
g3938
bsg30
(lp3941
g0
(g22
g2
Ntp3942
Rp3943
(dp3944
g26
g72
sg28
g3937
sg29
g3943
sg30
Nsg51
g52
sg53
Nsbag0
(g22
g2
Ntp3945
Rp3946
(dp3947
g26
g45
sg28
g3937
sg29
g3946
sg30
(lp3948
g0
(g22
g2
Ntp3949
Rp3950
(dp3951
g26
g72
sg28
g3946
sg29
g3950
sg30
Nsg51
g52
sg53
Nsbag0
(g22
g2
Ntp3952
Rp3953
(dp3954
g26
g67
sg28
g3946
sg29
g3953
sg30
(lp3955
g0
(g22
g2
Ntp3956
Rp3957
(dp3958
g26
g50
sg28
g3953
sg29
g3957
sg30
Nsg51
g52
sg53
Nsbasg51
g73
sg53
Nsbasg51
g73
sg53
Nsbasg51
g73
sg53
Nsbasg51
g74
sg53
Nsbasg51
g75
sg53
Nsbasg51
g76
sg53
Nsbsg77
F-1708.2600533518942
sg78
g79
sg141
Nsg29
g143
sg183
Nsg184
g185
((dp3959
g72
I339
sg50
I173
stp3960
Rp3961
sg190
F-7.313220387090301
sg191
F1.0
sg192
g193
sg196
Nsg194
g195
sg197
I50
sbsbag0
(g8
g2
Ntp3962
Rp3963
(dp3964
g12
F-1713.2706886459905
sg13
g0
(g14
g2
Ntp3965
Rp3966
(dp3967
g18
F-1713.2706886459905
sg19
Nsg20
F1.0
sg21
g0
(g22
g2
Ntp3968
Rp3969
(dp3970
g26
g27
sg28
Nsg29
g3969
sg30
(lp3971
g0
(g22
g2
Ntp3972
Rp3973
(dp3974
g26
g35
sg28
g3969
sg29
g3973
sg30
(lp3975
g0
(g22
g2
Ntp3976
Rp3977
(dp3978
g26
g40
sg28
g3973
sg29
g3977
sg30
(lp3979
g0
(g22
g2
Ntp3980
Rp3981
(dp3982
g26
g45
sg28
g3977
sg29
g3981
sg30
(lp3983
g0
(g22
g2
Ntp3984
Rp3985
(dp3986
g26
g50
sg28
g3981
sg29
g3985
sg30
Nsg51
g52
sg53
Nsbag0
(g22
g2
Ntp3987
Rp3988
(dp3989
g26
g67
sg28
g3981
sg29
g0
(g22
g2
Ntp3990
Rp3991
g3989
bsg30
(lp3992
g0
(g22
g2
Ntp3993
Rp3994
(dp3995
g26
g93
sg28
g3988
sg29
g3994
sg30
Nsg51
g52
sg53
Nsbasg51
g73
sg53
Nsbasg51
g73
sg53
Nsbasg51
g74
sg53
Nsbasg51
g75
sg53
Nsbasg51
g76
sg53
Nsbsg77
F-1708.2600533518942
sg78
g79
sg141
Nsg29
g143
sg183
Nsg184
g185
((dp3996
g93
I252
sg50
I260
stp3997
Rp3998
sg190
F-5.0106352940962555
sg191
F1.0
sg192
g193
sg196
Nsg194
g195
sg197
I50
sbsbag0
(g8
g2
Ntp3999
Rp4000
(dp4001
g12
F-1713.2706886459905
sg13
g0
(g14
g2
Ntp4002
Rp4003
(dp4004
g18
F-1713.2706886459905
sg19
Nsg20
F1.0
sg21
g0
(g22
g2
Ntp4005
Rp4006
(dp4007
g26
g27
sg28
Nsg29
g4006
sg30
(lp4008
g0
(g22
g2
Ntp4009
Rp4010
(dp4011
g26
g35
sg28
g4006
sg29
g4010
sg30
(lp4012
g0
(g22
g2
Ntp4013
Rp4014
(dp4015
g26
g40
sg28
g4010
sg29
g0
(g22
g2
Ntp4016
Rp4017
g4015
bsg30
(lp4018
g0
(g22
g2
Ntp4019
Rp4020
(dp4021
g26
g45
sg28
g4014
sg29
g4020
sg30
(lp4022
g0
(g22
g2
Ntp4023
Rp4024
(dp4025
g26
g61
sg28
g4020
sg29
g4024
sg30
Nsg51
g52
sg53
Nsbag0
(g22
g2
Ntp4026
Rp4027
(dp4028
g26
g67
sg28
g4020
sg29
g4027
sg30
(lp4029
g0
(g22
g2
Ntp4030
Rp4031
(dp4032
g26
g72
sg28
g4027
sg29
g4031
sg30
Nsg51
g52
sg53
Nsbasg51
g73
sg53
Nsbasg51
g73
sg53
Nsbasg51
g74
sg53
Nsbasg51
g75
sg53
Nsbasg51
g76
sg53
Nsbsg77
F-1708.2600533518942
sg78
g79
sg141
Nsg29
g143
sg183
Nsg184
g185
((dp4033
g72
I241
sg61
I271
stp4034
Rp4035
sg190
F-5.0106352940962555
sg191
F1.0
sg192
g193
sg196
Nsg194
g195
sg197
I50
sbsbag0
(g8
g2
Ntp4036
Rp4037
(dp4038
g12
F-1713.2706886459905
sg13
g0
(g14
g2
Ntp4039
Rp4040
(dp4041
g18
F-1713.2706886459905
sg19
Nsg20
F1.0
sg21
g0
(g22
g2
Ntp4042
Rp4043
(dp4044
g26
g27
sg28
Nsg29
g0
(g22
g2
Ntp4045
Rp4046
g4044
bsg30
(lp4047
g0
(g22
g2
Ntp4048
Rp4049
(dp4050
g26
g35
sg28
g4043
sg29
g4049
sg30
(lp4051
g0
(g22
g2
Ntp4052
Rp4053
(dp4054
g26
g40
sg28
g4049
sg29
g4053
sg30
(lp4055
g0
(g22
g2
Ntp4056
Rp4057
(dp4058
g26
g45
sg28
g4053
sg29
g4057
sg30
(lp4059
g0
(g22
g2
Ntp4060
Rp4061
(dp4062
g26
g72
sg28
g4057
sg29
g4061
sg30
Nsg51
g52
sg53
Nsbag0
(g22
g2
Ntp4063
Rp4064
(dp4065
g26
g67
sg28
g4057
sg29
g4064
sg30
(lp4066
g0
(g22
g2
Ntp4067
Rp4068
(dp4069
g26
g50
sg28
g4064
sg29
g4068
sg30
Nsg51
g52
sg53
Nsbasg51
g73
sg53
Nsbasg51
g73
sg53
Nsbasg51
g74
sg53
Nsbasg51
g75
sg53
Nsbasg51
g76
sg53
Nsbsg77
F-1708.2600533518942
sg78
g79
sg141
Nsg29
g143
sg183
Nsg184
g185
((dp4070
g72
I240
sg50
I272
stp4071
Rp4072
sg190
F-5.0106352940962555
sg191
F1.0
sg192
g193
sg196
Nsg194
g195
sg197
I50
sbsbag0
(g8
g2
Ntp4073
Rp4074
(dp4075
g12
F-1713.2706886459905
sg13
g0
(g14
g2
Ntp4076
Rp4077
(dp4078
g18
F-1713.2706886459905
sg19
Nsg20
F1.0
sg21
g0
(g22
g2
Ntp4079
Rp4080
(dp4081
g26
g27
sg28
Nsg29
g4080
sg30
(lp4082
g0
(g22
g2
Ntp4083
Rp4084
(dp4085
g26
g35
sg28
g4080
sg29
g4084
sg30
(lp4086
g0
(g22
g2
Ntp4087
Rp4088
(dp4089
g26
g40
sg28
g4084
sg29
g0
(g22
g2
Ntp4090
Rp4091
g4089
bsg30
(lp4092
g0
(g22
g2
Ntp4093
Rp4094
(dp4095
g26
g45
sg28
g4088
sg29
g4094
sg30
(lp4096
g0
(g22
g2
Ntp4097
Rp4098
(dp4099
g26
g93
sg28
g4094
sg29
g4098
sg30
Nsg51
g52
sg53
Nsbag0
(g22
g2
Ntp4100
Rp4101
(dp4102
g26
g67
sg28
g4094
sg29
g4101
sg30
(lp4103
g0
(g22
g2
Ntp4104
Rp4105
(dp4106
g26
g72
sg28
g4101
sg29
g4105
sg30
Nsg51
g52
sg53
Nsbasg51
g73
sg53
Nsbasg51
g73
sg53
Nsbasg51
g74
sg53
Nsbasg51
g75
sg53
Nsbasg51
g76
sg53
Nsbsg77
F-1708.2600533518942
sg78
g79
sg141
Nsg29
g143
sg183
Nsg184
g185
((dp4107
g72
I244
sg93
I268
stp4108
Rp4109
sg190
F-5.0106352940962555
sg191
F1.0
sg192
g193
sg196
Nsg194
g195
sg197
I50
sbsbag0
(g8
g2
Ntp4110
Rp4111
(dp4112
g12
F-1713.2706886459905
sg13
g0
(g14
g2
Ntp4113
Rp4114
(dp4115
g18
F-1713.2706886459905
sg19
Nsg20
F1.0
sg21
g0
(g22
g2
Ntp4116
Rp4117
(dp4118
g26
g27
sg28
Nsg29
g4117
sg30
(lp4119
g0
(g22
g2
Ntp4120
Rp4121
(dp4122
g26
g35
sg28
g4117
sg29
g4121
sg30
(lp4123
g0
(g22
g2
Ntp4124
Rp4125
(dp4126
g26
g40
sg28
g4121
sg29
g4125
sg30
(lp4127
g0
(g22
g2
Ntp4128
Rp4129
(dp4130
g26
g45
sg28
g4125
sg29
g4129
sg30
(lp4131
g0
(g22
g2
Ntp4132
Rp4133
(dp4134
g26
g93
sg28
g4129
sg29
g4133
sg30
Nsg51
g52
sg53
Nsbag0
(g22
g2
Ntp4135
Rp4136
(dp4137
g26
g67
sg28
g4129
sg29
g4136
sg30
(lp4138
g0
(g22
g2
Ntp4139
Rp4140
(dp4141
g26
g50
sg28
g4136
sg29
g0
(g22
g2
Ntp4142
Rp4143
g4141
bsg30
Nsg51
g52
sg53
Nsbasg51
g73
sg53
Nsbasg51
g73
sg53
Nsbasg51
g74
sg53
Nsbasg51
g75
sg53
Nsbasg51
g76
sg53
Nsbsg77
F-1708.2600533518942
sg78
g79
sg141
Nsg29
g143
sg183
Nsg184
g185
((dp4144
g93
I254
sg50
I258
stp4145
Rp4146
sg190
F-5.0106352940962555
sg191
F1.0
sg192
g193
sg196
Nsg194
g195
sg197
I50
sbsbag0
(g8
g2
Ntp4147
Rp4148
(dp4149
g12
F-1713.2706886459905
sg13
g0
(g14
g2
Ntp4150
Rp4151
(dp4152
g18
F-1713.2706886459905
sg19
Nsg20
F1.0
sg21
g0
(g22
g2
Ntp4153
Rp4154
(dp4155
g26
g27
sg28
Nsg29
g0
(g22
g2
Ntp4156
Rp4157
g4155
bsg30
(lp4158
g0
(g22
g2
Ntp4159
Rp4160
(dp4161
g26
g35
sg28
g4154
sg29
g4160
sg30
(lp4162
g0
(g22
g2
Ntp4163
Rp4164
(dp4165
g26
g40
sg28
g4160
sg29
g4164
sg30
(lp4166
g0
(g22
g2
Ntp4167
Rp4168
(dp4169
g26
g45
sg28
g4164
sg29
g4168
sg30
(lp4170
g0
(g22
g2
Ntp4171
Rp4172
(dp4173
g26
g72
sg28
g4168
sg29
g4172
sg30
Nsg51
g52
sg53
Nsbag0
(g22
g2
Ntp4174
Rp4175
(dp4176
g26
g67
sg28
g4168
sg29
g4175
sg30
(lp4177
g0
(g22
g2
Ntp4178
Rp4179
(dp4180
g26
g72
sg28
g4175
sg29
g4179
sg30
Nsg51
g52
sg53
Nsbasg51
g73
sg53
Nsbasg51
g73
sg53
Nsbasg51
g74
sg53
Nsbasg51
g75
sg53
Nsbasg51
g76
sg53
Nsbsg77
F-1708.2600533518942
sg78
g79
sg141
Nsg29
g143
sg183
Nsg184
g185
((dp4181
g72
I512
stp4182
Rp4183
sg190
F-5.0106352940962555
sg191
F1.0
sg192
g193
sg196
Nsg194
g195
sg197
I50
sbsbag0
(g8
g2
Ntp4184
Rp4185
(dp4186
g12
F-1713.2706886459905
sg13
g0
(g14
g2
Ntp4187
Rp4188
(dp4189
g18
F-1713.2706886459905
sg19
Nsg20
F1.0
sg21
g0
(g22
g2
Ntp4190
Rp4191
(dp4192
g26
g27
sg28
Nsg29
g0
(g22
g2
Ntp4193
Rp4194
g4192
bsg30
(lp4195
g0
(g22
g2
Ntp4196
Rp4197
(dp4198
g26
g35
sg28
g4191
sg29
g4197
sg30
(lp4199
g0
(g22
g2
Ntp4200
Rp4201
(dp4202
g26
g40
sg28
g4197
sg29
g4201
sg30
(lp4203
g0
(g22
g2
Ntp4204
Rp4205
(dp4206
g26
g45
sg28
g4201
sg29
g4205
sg30
(lp4207
g0
(g22
g2
Ntp4208
Rp4209
(dp4210
g26
g50
sg28
g4205
sg29
g4209
sg30
Nsg51
g52
sg53
Nsbag0
(g22
g2
Ntp4211
Rp4212
(dp4213
g26
g67
sg28
g4205
sg29
g4212
sg30
(lp4214
g0
(g22
g2
Ntp4215
Rp4216
(dp4217
g26
g61
sg28
g4212
sg29
g4216
sg30
Nsg51
g52
sg53
Nsbasg51
g73
sg53
Nsbasg51
g73
sg53
Nsbasg51
g74
sg53
Nsbasg51
g75
sg53
Nsbasg51
g76
sg53
Nsbsg77
F-1708.2600533518942
sg78
g79
sg141
Nsg29
g143
sg183
Nsg184
g185
((dp4218
g61
I237
sg50
I275
stp4219
Rp4220
sg190
F-5.0106352940962555
sg191
F1.0
sg192
g193
sg196
Nsg194
g195
sg197
I50
sbsbag0
(g8
g2
Ntp4221
Rp4222
(dp4223
g12
F-1714.7747660427667
sg13
g0
(g14
g2
Ntp4224
Rp4225
(dp4226
g18
F-1714.7747660427667
sg19
Nsg20
F1.0
sg21
g0
(g22
g2
Ntp4227
Rp4228
(dp4229
g26
g27
sg28
Nsg29
g4228
sg30
(lp4230
g0
(g22
g2
Ntp4231
Rp4232
(dp4233
g26
g136
sg28
g4228
sg29
g4232
sg30
(lp4234
g0
(g22
g2
Ntp4235
Rp4236
(dp4237
g26
g35
sg28
g4232
sg29
g4236
sg30
(lp4238
g0
(g22
g2
Ntp4239
Rp4240
(dp4241
g26
g40
sg28
g4236
sg29
g4240
sg30
(lp4242
g0
(g22
g2
Ntp4243
Rp4244
(dp4245
g26
g67
sg28
g4240
sg29
g0
(g22
g2
Ntp4246
Rp4247
g4245
bsg30
(lp4248
g0
(g22
g2
Ntp4249
Rp4250
(dp4251
g26
g72
sg28
g4244
sg29
g4250
sg30
Nsg51
g52
sg53
Nsbasg51
g73
sg53
Nsbasg51
g74
sg53
Nsbasg51
g75
sg53
Nsbag0
(g22
g2
Ntp4252
Rp4253
(dp4254
g26
g35
sg28
g4232
sg29
g4253
sg30
(lp4255
g0
(g22
g2
Ntp4256
Rp4257
(dp4258
g26
g40
sg28
g4253
sg29
g4257
sg30
(lp4259
g0
(g22
g2
Ntp4260
Rp4261
(dp4262
g26
g67
sg28
g4257
sg29
g4261
sg30
(lp4263
g0
(g22
g2
Ntp4264
Rp4265
(dp4266
g26
g72
sg28
g4261
sg29
g4265
sg30
Nsg51
g52
sg53
Nsbasg51
g73
sg53
Nsbasg51
g74
sg53
Nsbasg51
g75
sg53
Nsbasg51
g75
sg53
Nsbasg51
g76
sg53
Nsbsg77
F-1708.2600533518942
sg78
g79
sg141
Nsg29
g143
sg183
Nsg184
g185
((dp4267
S'i i'
p4268
I512
stp4269
Rp4270
sg190
F-6.514712690872528
sg191
F1.0
sg192
g193
sg196
Nsg194
g195
sg197
I50
sbsbag0
(g8
g2
Ntp4271
Rp4272
(dp4273
g12
F-1713.2706886459905
sg13
g0
(g14
g2
Ntp4274
Rp4275
(dp4276
g18
F-1713.2706886459905
sg19
Nsg20
F1.0
sg21
g0
(g22
g2
Ntp4277
Rp4278
(dp4279
g26
g27
sg28
Nsg29
g4278
sg30
(lp4280
g0
(g22
g2
Ntp4281
Rp4282
(dp4283
g26
g35
sg28
g4278
sg29
g4282
sg30
(lp4284
g0
(g22
g2
Ntp4285
Rp4286
(dp4287
g26
g40
sg28
g4282
sg29
g4286
sg30
(lp4288
g0
(g22
g2
Ntp4289
Rp4290
(dp4291
g26
g45
sg28
g4286
sg29
g4290
sg30
(lp4292
g0
(g22
g2
Ntp4293
Rp4294
(dp4295
g26
g107
sg28
g4290
sg29
g0
(g22
g2
Ntp4296
Rp4297
g4295
bsg30
Nsg51
g52
sg53
Nsbag0
(g22
g2
Ntp4298
Rp4299
(dp4300
g26
g67
sg28
g4290
sg29
g4299
sg30
(lp4301
g0
(g22
g2
Ntp4302
Rp4303
(dp4304
g26
g72
sg28
g4299
sg29
g4303
sg30
Nsg51
g52
sg53
Nsbasg51
g73
sg53
Nsbasg51
g73
sg53
Nsbasg51
g74
sg53
Nsbasg51
g75
sg53
Nsbasg51
g76
sg53
Nsbsg77
F-1708.2600533518942
sg78
g79
sg141
Nsg29
g143
sg183
Nsg184
g185
((dp4305
g72
I252
sg107
I260
stp4306
Rp4307
sg190
F-5.0106352940962555
sg191
F1.0
sg192
g193
sg196
Nsg194
g195
sg197
I50
sbsbag0
(g8
g2
Ntp4308
Rp4309
(dp4310
g12
F-1714.7747660427667
sg13
g0
(g14
g2
Ntp4311
Rp4312
(dp4313
g18
F-1714.7747660427667
sg19
Nsg20
F1.0
sg21
g0
(g22
g2
Ntp4314
Rp4315
(dp4316
g26
g27
sg28
Nsg29
g4315
sg30
(lp4317
g0
(g22
g2
Ntp4318
Rp4319
(dp4320
g26
g136
sg28
g4315
sg29
g4319
sg30
(lp4321
g0
(g22
g2
Ntp4322
Rp4323
(dp4324
g26
g35
sg28
g4319
sg29
g4323
sg30
(lp4325
g0
(g22
g2
Ntp4326
Rp4327
(dp4328
g26
g40
sg28
g4323
sg29
g4327
sg30
(lp4329
g0
(g22
g2
Ntp4330
Rp4331
(dp4332
g26
g67
sg28
g4327
sg29
g4331
sg30
(lp4333
g0
(g22
g2
Ntp4334
Rp4335
(dp4336
g26
g107
sg28
g4331
sg29
g4335
sg30
Nsg51
g52
sg53
Nsbasg51
g73
sg53
Nsbasg51
g74
sg53
Nsbasg51
g75
sg53
Nsbag0
(g22
g2
Ntp4337
Rp4338
(dp4339
g26
g35
sg28
g4319
sg29
g0
(g22
g2
Ntp4340
Rp4341
g4339
bsg30
(lp4342
g0
(g22
g2
Ntp4343
Rp4344
(dp4345
g26
g40
sg28
g4338
sg29
g4344
sg30
(lp4346
g0
(g22
g2
Ntp4347
Rp4348
(dp4349
g26
g67
sg28
g4344
sg29
g4348
sg30
(lp4350
g0
(g22
g2
Ntp4351
Rp4352
(dp4353
g26
g107
sg28
g4348
sg29
g4352
sg30
Nsg51
g52
sg53
Nsbasg51
g73
sg53
Nsbasg51
g74
sg53
Nsbasg51
g75
sg53
Nsbasg51
g75
sg53
Nsbasg51
g76
sg53
Nsbsg77
F-1708.2600533518942
sg78
g79
sg141
Nsg29
g143
sg183
Nsg184
g185
((dp4354
S'o o'
p4355
I512
stp4356
Rp4357
sg190
F-6.514712690872528
sg191
F1.0
sg192
g193
sg196
Nsg194
g195
sg197
I50
sbsbag0
(g8
g2
Ntp4358
Rp4359
(dp4360
g12
F-1714.7747660427667
sg13
g0
(g14
g2
Ntp4361
Rp4362
(dp4363
g18
F-1714.7747660427667
sg19
Nsg20
F1.0
sg21
g0
(g22
g2
Ntp4364
Rp4365
(dp4366
g26
g27
sg28
Nsg29
g4365
sg30
(lp4367
g0
(g22
g2
Ntp4368
Rp4369
(dp4370
g26
g136
sg28
g4365
sg29
g4369
sg30
(lp4371
g0
(g22
g2
Ntp4372
Rp4373
(dp4374
g26
g35
sg28
g4369
sg29
g4373
sg30
(lp4375
g0
(g22
g2
Ntp4376
Rp4377
(dp4378
g26
g40
sg28
g4373
sg29
g4377
sg30
(lp4379
g0
(g22
g2
Ntp4380
Rp4381
(dp4382
g26
g67
sg28
g4377
sg29
g4381
sg30
(lp4383
g0
(g22
g2
Ntp4384
Rp4385
(dp4386
g26
g72
sg28
g4381
sg29
g4385
sg30
Nsg51
g52
sg53
Nsbasg51
g73
sg53
Nsbasg51
g74
sg53
Nsbasg51
g75
sg53
Nsbag0
(g22
g2
Ntp4387
Rp4388
(dp4389
g26
g35
sg28
g4369
sg29
g4388
sg30
(lp4390
g0
(g22
g2
Ntp4391
Rp4392
(dp4393
g26
g40
sg28
g4388
sg29
g4392
sg30
(lp4394
g0
(g22
g2
Ntp4395
Rp4396
(dp4397
g26
g67
sg28
g4392
sg29
g0
(g22
g2
Ntp4398
Rp4399
g4397
bsg30
(lp4400
g0
(g22
g2
Ntp4401
Rp4402
(dp4403
g26
g50
sg28
g4396
sg29
g4402
sg30
Nsg51
g52
sg53
Nsbasg51
g73
sg53
Nsbasg51
g74
sg53
Nsbasg51
g75
sg53
Nsbasg51
g75
sg53
Nsbasg51
g76
sg53
Nsbsg77
F-1708.2600533518942
sg78
g79
sg141
Nsg29
g143
sg183
Nsg184
g185
((dp4404
S'i m'
p4405
I512
stp4406
Rp4407
sg190
F-6.514712690872528
sg191
F1.0
sg192
g193
sg196
Nsg194
g195
sg197
I50
sbsbag0
(g8
g2
Ntp4408
Rp4409
(dp4410
g12
F-1714.7747660427667
sg13
g0
(g14
g2
Ntp4411
Rp4412
(dp4413
g18
F-1714.7747660427667
sg19
Nsg20
F1.0
sg21
g0
(g22
g2
Ntp4414
Rp4415
(dp4416
g26
g27
sg28
Nsg29
g4415
sg30
(lp4417
g0
(g22
g2
Ntp4418
Rp4419
(dp4420
g26
g136
sg28
g4415
sg29
g0
(g22
g2
Ntp4421
Rp4422
g4420
bsg30
(lp4423
g0
(g22
g2
Ntp4424
Rp4425
(dp4426
g26
g35
sg28
g4419
sg29
g4425
sg30
(lp4427
g0
(g22
g2
Ntp4428
Rp4429
(dp4430
g26
g40
sg28
g4425
sg29
g4429
sg30
(lp4431
g0
(g22
g2
Ntp4432
Rp4433
(dp4434
g26
g67
sg28
g4429
sg29
g4433
sg30
(lp4435
g0
(g22
g2
Ntp4436
Rp4437
(dp4438
g26
g50
sg28
g4433
sg29
g4437
sg30
Nsg51
g52
sg53
Nsbasg51
g73
sg53
Nsbasg51
g74
sg53
Nsbasg51
g75
sg53
Nsbag0
(g22
g2
Ntp4439
Rp4440
(dp4441
g26
g35
sg28
g4419
sg29
g4440
sg30
(lp4442
g0
(g22
g2
Ntp4443
Rp4444
(dp4445
g26
g40
sg28
g4440
sg29
g4444
sg30
(lp4446
g0
(g22
g2
Ntp4447
Rp4448
(dp4449
g26
g67
sg28
g4444
sg29
g4448
sg30
(lp4450
g0
(g22
g2
Ntp4451
Rp4452
(dp4453
g26
g93
sg28
g4448
sg29
g4452
sg30
Nsg51
g52
sg53
Nsbasg51
g73
sg53
Nsbasg51
g74
sg53
Nsbasg51
g75
sg53
Nsbasg51
g75
sg53
Nsbasg51
g76
sg53
Nsbsg77
F-1708.2600533518942
sg78
g79
sg141
Nsg29
g143
sg183
Nsg184
g185
((dp4454
S'm p'
p4455
I512
stp4456
Rp4457
sg190
F-6.514712690872528
sg191
F1.0
sg192
g193
sg196
Nsg194
g195
sg197
I50
sbsbag0
(g8
g2
Ntp4458
Rp4459
(dp4460
g12
F-1715.5732737389844
sg13
g0
(g14
g2
Ntp4461
Rp4462
(dp4463
g18
F-1715.5732737389844
sg19
Nsg20
F1.0
sg21
g0
(g22
g2
Ntp4464
Rp4465
(dp4466
g26
g27
sg28
Nsg29
g4465
sg30
(lp4467
g0
(g22
g2
Ntp4468
Rp4469
(dp4470
g26
g35
sg28
g4465
sg29
g4469
sg30
(lp4471
g0
(g22
g2
Ntp4472
Rp4473
(dp4474
g26
g40
sg28
g4469
sg29
g4473
sg30
(lp4475
g0
(g22
g2
Ntp4476
Rp4477
(dp4478
g26
g45
sg28
g4473
sg29
g4477
sg30
(lp4479
g0
(g22
g2
Ntp4480
Rp4481
(dp4482
g26
g93
sg28
g4477
sg29
g4481
sg30
Nsg51
g52
sg53
Nsbag0
(g22
g2
Ntp4483
Rp4484
(dp4485
g26
g45
sg28
g4477
sg29
g4484
sg30
(lp4486
g0
(g22
g2
Ntp4487
Rp4488
(dp4489
g26
g72
sg28
g4484
sg29
g0
(g22
g2
Ntp4490
Rp4491
g4489
bsg30
Nsg51
g52
sg53
Nsbag0
(g22
g2
Ntp4492
Rp4493
(dp4494
g26
g67
sg28
g4484
sg29
g4493
sg30
(lp4495
g0
(g22
g2
Ntp4496
Rp4497
(dp4498
g26
g61
sg28
g4493
sg29
g4497
sg30
Nsg51
g52
sg53
Nsbasg51
g73
sg53
Nsbasg51
g73
sg53
Nsbasg51
g73
sg53
Nsbasg51
g74
sg53
Nsbasg51
g75
sg53
Nsbasg51
g76
sg53
Nsbsg77
F-1708.2600533518942
sg78
g79
sg141
Nsg29
g143
sg183
Nsg184
g185
((dp4499
g72
I162
sg93
I172
sg61
I178
stp4500
Rp4501
sg190
F-7.313220387090301
sg191
F1.0
sg192
g193
sg196
Nsg194
g195
sg197
I50
sbsbag0
(g8
g2
Ntp4502
Rp4503
(dp4504
g12
F-1715.5732737389844
sg13
g0
(g14
g2
Ntp4505
Rp4506
(dp4507
g18
F-1715.5732737389844
sg19
Nsg20
F1.0
sg21
g0
(g22
g2
Ntp4508
Rp4509
(dp4510
g26
g27
sg28
Nsg29
g4509
sg30
(lp4511
g0
(g22
g2
Ntp4512
Rp4513
(dp4514
g26
g35
sg28
g4509
sg29
g4513
sg30
(lp4515
g0
(g22
g2
Ntp4516
Rp4517
(dp4518
g26
g40
sg28
g4513
sg29
g4517
sg30
(lp4519
g0
(g22
g2
Ntp4520
Rp4521
(dp4522
g26
g45
sg28
g4517
sg29
g4521
sg30
(lp4523
g0
(g22
g2
Ntp4524
Rp4525
(dp4526
g26
g61
sg28
g4521
sg29
g4525
sg30
Nsg51
g52
sg53
Nsbag0
(g22
g2
Ntp4527
Rp4528
(dp4529
g26
g45
sg28
g4521
sg29
g0
(g22
g2
Ntp4530
Rp4531
g4529
bsg30
(lp4532
g0
(g22
g2
Ntp4533
Rp4534
(dp4535
g26
g93
sg28
g4528
sg29
g4534
sg30
Nsg51
g52
sg53
Nsbag0
(g22
g2
Ntp4536
Rp4537
(dp4538
g26
g67
sg28
g4528
sg29
g4537
sg30
(lp4539
g0
(g22
g2
Ntp4540
Rp4541
(dp4542
g26
g93
sg28
g4537
sg29
g4541
sg30
Nsg51
g52
sg53
Nsbasg51
g73
sg53
Nsbasg51
g73
sg53
Nsbasg51
g73
sg53
Nsbasg51
g74
sg53
Nsbasg51
g75
sg53
Nsbasg51
g76
sg53
Nsbsg77
F-1708.2600533518942
sg78
g79
sg141
Nsg29
g143
sg183
Nsg184
g185
((dp4543
g93
I336
sg61
I176
stp4544
Rp4545
sg190
F-7.313220387090301
sg191
F1.0
sg192
g193
sg196
Nsg194
g195
sg197
I50
sbsbag0
(g8
g2
Ntp4546
Rp4547
(dp4548
g12
F-272.90145727830856
sg13
g0
(g14
g2
Ntp4549
Rp4550
(dp4551
g18
F-272.90145727830856
sg19
Nsg20
F1.0
sg21
g0
(g22
g2
Ntp4552
Rp4553
(dp4554
g26
g27
sg28
Nsg29
g4553
sg30
(lp4555
g0
(g22
g2
Ntp4556
Rp4557
(dp4558
g26
g136
sg28
g4553
sg29
g4557
sg30
(lp4559
g0
(g22
g2
Ntp4560
Rp4561
(dp4562
g26
g136
sg28
g4557
sg29
g4561
sg30
(lp4563
g0
(g22
g2
Ntp4564
Rp4565
(dp4566
g26
g35
sg28
g4561
sg29
g4565
sg30
(lp4567
g0
(g22
g2
Ntp4568
Rp4569
(dp4570
g26
g40
sg28
g4565
sg29
g0
(g22
g2
Ntp4571
Rp4572
g4570
bsg30
(lp4573
g0
(g22
g2
Ntp4574
Rp4575
(dp4576
g26
g67
sg28
g4569
sg29
g4575
sg30
(lp4577
g0
(g22
g2
Ntp4578
Rp4579
(dp4580
g26
g61
sg28
g4575
sg29
g4579
sg30
Nsg51
g52
sg53
Nsbasg51
g73
sg53
Nsbasg51
g74
sg53
Nsbasg51
g75
sg53
Nsbag0
(g22
g2
Ntp4581
Rp4582
(dp4583
g26
g35
sg28
g4561
sg29
g4582
sg30
(lp4584
g0
(g22
g2
Ntp4585
Rp4586
(dp4587
g26
g40
sg28
g4582
sg29
g4586
sg30
(lp4588
g0
(g22
g2
Ntp4589
Rp4590
(dp4591
g26
g45
sg28
g4586
sg29
g4590
sg30
(lp4592
g0
(g22
g2
Ntp4593
Rp4594
(dp4595
g26
g107
sg28
g4590
sg29
g4594
sg30
Nsg51
g52
sg53
Nsbag0
(g22
g2
Ntp4596
Rp4597
(dp4598
g26
g67
sg28
g4590
sg29
g4597
sg30
(lp4599
g0
(g22
g2
Ntp4600
Rp4601
(dp4602
g26
g72
sg28
g4597
sg29
g4601
sg30
Nsg51
g52
sg53
Nsbasg51
g73
sg53
Nsbasg51
g73
sg53
Nsbasg51
g74
sg53
Nsbasg51
g75
sg53
Nsbasg51
g75
sg53
Nsbag0
(g22
g2
Ntp4603
Rp4604
(dp4605
g26
g35
sg28
g4557
sg29
g4604
sg30
(lp4606
g0
(g22
g2
Ntp4607
Rp4608
(dp4609
g26
g40
sg28
g4604
sg29
g4608
sg30
(lp4610
g0
(g22
g2
Ntp4611
Rp4612
(dp4613
g26
g45
sg28
g4608
sg29
g4612
sg30
(lp4614
g0
(g22
g2
Ntp4615
Rp4616
(dp4617
g26
g93
sg28
g4612
sg29
g4616
sg30
Nsg51
g52
sg53
Nsbag0
(g22
g2
Ntp4618
Rp4619
(dp4620
g26
g67
sg28
g4612
sg29
g4619
sg30
(lp4621
g0
(g22
g2
Ntp4622
Rp4623
(dp4624
g26
g50
sg28
g4619
sg29
g4623
sg30
Nsg51
g52
sg53
Nsbasg51
g73
sg53
Nsbasg51
g73
sg53
Nsbasg51
g74
sg53
Nsbasg51
g75
sg53
Nsbasg51
g75
sg53
Nsbasg51
g76
sg53
Nsbsg77
F-257.9749119116776
sg78
g79
sg141
Nsg29
g143
sg183
Nsg184
g185
((dp4625
S'b o p'
p4626
I146
sS'b i m'
p4627
I136
sS'b o m'
p4628
I116
sS'b i p'
p4629
I114
stp4630
Rp4631
sg190
F-14.92654536663094
sg191
F1.0
sg192
g193
sg196
Nsg194
g195
sg197
I50
sbsbag0
(g8
g2
Ntp4632
Rp4633
(dp4634
g12
F-1713.2706886459905
sg13
g0
(g14
g2
Ntp4635
Rp4636
(dp4637
g18
F-1713.2706886459905
sg19
Nsg20
F1.0
sg21
g0
(g22
g2
Ntp4638
Rp4639
(dp4640
g26
g27
sg28
Nsg29
g4639
sg30
(lp4641
g0
(g22
g2
Ntp4642
Rp4643
(dp4644
g26
g35
sg28
g4639
sg29
g0
(g22
g2
Ntp4645
Rp4646
g4644
bsg30
(lp4647
g0
(g22
g2
Ntp4648
Rp4649
(dp4650
g26
g40
sg28
g4643
sg29
g4649
sg30
(lp4651
g0
(g22
g2
Ntp4652
Rp4653
(dp4654
g26
g45
sg28
g4649
sg29
g4653
sg30
(lp4655
g0
(g22
g2
Ntp4656
Rp4657
(dp4658
g26
g107
sg28
g4653
sg29
g4657
sg30
Nsg51
g52
sg53
Nsbag0
(g22
g2
Ntp4659
Rp4660
(dp4661
g26
g67
sg28
g4653
sg29
g4660
sg30
(lp4662
g0
(g22
g2
Ntp4663
Rp4664
(dp4665
g26
g61
sg28
g4660
sg29
g4664
sg30
Nsg51
g52
sg53
Nsbasg51
g73
sg53
Nsbasg51
g73
sg53
Nsbasg51
g74
sg53
Nsbasg51
g75
sg53
Nsbasg51
g76
sg53
Nsbsg77
F-1708.2600533518942
sg78
g79
sg141
Nsg29
g143
sg183
Nsg184
g185
((dp4666
g61
I254
sg107
I258
stp4667
Rp4668
sg190
F-5.0106352940962555
sg191
F1.0
sg192
g193
sg196
Nsg194
g195
sg197
I50
sbsbag0
(g8
g2
Ntp4669
Rp4670
(dp4671
g12
F-1710.9681035529964
sg13
g0
(g14
g2
Ntp4672
Rp4673
(dp4674
g18
F-1710.9681035529964
sg19
Nsg20
F1.0
sg21
g0
(g22
g2
Ntp4675
Rp4676
(dp4677
g26
g27
sg28
Nsg29
g4676
sg30
(lp4678
g0
(g22
g2
Ntp4679
Rp4680
(dp4681
g26
g35
sg28
g4676
sg29
g4680
sg30
(lp4682
g0
(g22
g2
Ntp4683
Rp4684
(dp4685
g26
g40
sg28
g4680
sg29
g4684
sg30
(lp4686
g0
(g22
g2
Ntp4687
Rp4688
(dp4689
g26
g67
sg28
g4684
sg29
g0
(g22
g2
Ntp4690
Rp4691
g4689
bsg30
(lp4692
g0
(g22
g2
Ntp4693
Rp4694
(dp4695
g26
g93
sg28
g4688
sg29
g4694
sg30
Nsg51
g52
sg53
Nsbasg51
g73
sg53
Nsbasg51
g74
sg53
Nsbasg51
g75
sg53
Nsbasg51
g76
sg53
Nsbsg77
F-1708.2600533518942
sg78
g79
sg141
Nsg29
g143
sg183
Nsg184
g185
((dp4696
g93
I512
stp4697
Rp4698
sg190
F-2.7080502011022096
sg191
F1.0
sg192
g193
sg196
Nsg194
g195
sg197
I50
sbsbag0
(g8
g2
Ntp4699
Rp4700
(dp4701
g12
F-406.02617540751504
sg13
g0
(g14
g2
Ntp4702
Rp4703
(dp4704
g18
F-406.02617540751504
sg19
Nsg20
F1.0
sg21
g0
(g22
g2
Ntp4705
Rp4706
(dp4707
g26
g27
sg28
Nsg29
g4706
sg30
(lp4708
g0
(g22
g2
Ntp4709
Rp4710
(dp4711
g26
g136
sg28
g4706
sg29
g4710
sg30
(lp4712
g0
(g22
g2
Ntp4713
Rp4714
(dp4715
g26
g136
sg28
g4710
sg29
g4714
sg30
(lp4716
g0
(g22
g2
Ntp4717
Rp4718
(dp4719
g26
g35
sg28
g4714
sg29
g4718
sg30
(lp4720
g0
(g22
g2
Ntp4721
Rp4722
(dp4723
g26
g40
sg28
g4718
sg29
g4722
sg30
(lp4724
g0
(g22
g2
Ntp4725
Rp4726
(dp4727
g26
g45
sg28
g4722
sg29
g4726
sg30
(lp4728
g0
(g22
g2
Ntp4729
Rp4730
(dp4731
g26
g72
sg28
g4726
sg29
g4730
sg30
Nsg51
g52
sg53
Nsbag0
(g22
g2
Ntp4732
Rp4733
(dp4734
g26
g67
sg28
g4726
sg29
g4733
sg30
(lp4735
g0
(g22
g2
Ntp4736
Rp4737
(dp4738
g26
g61
sg28
g4733
sg29
g4737
sg30
Nsg51
g52
sg53
Nsbasg51
g73
sg53
Nsbasg51
g73
sg53
Nsbasg51
g74
sg53
Nsbasg51
g75
sg53
Nsbag0
(g22
g2
Ntp4739
Rp4740
(dp4741
g26
g35
sg28
g4714
sg29
g4740
sg30
(lp4742
g0
(g22
g2
Ntp4743
Rp4744
(dp4745
g26
g40
sg28
g4740
sg29
g4744
sg30
(lp4746
g0
(g22
g2
Ntp4747
Rp4748
(dp4749
g26
g45
sg28
g4744
sg29
g0
(g22
g2
Ntp4750
Rp4751
g4749
bsg30
(lp4752
g0
(g22
g2
Ntp4753
Rp4754
(dp4755
g26
g107
sg28
g4748
sg29
g4754
sg30
Nsg51
g52
sg53
Nsbag0
(g22
g2
Ntp4756
Rp4757
(dp4758
g26
g67
sg28
g4748
sg29
g4757
sg30
(lp4759
g0
(g22
g2
Ntp4760
Rp4761
(dp4762
g26
g72
sg28
g4757
sg29
g4761
sg30
Nsg51
g52
sg53
Nsbasg51
g73
sg53
Nsbasg51
g73
sg53
Nsbasg51
g74
sg53
Nsbasg51
g75
sg53
Nsbasg51
g75
sg53
Nsbag0
(g22
g2
Ntp4763
Rp4764
(dp4765
g26
g35
sg28
g4710
sg29
g4764
sg30
(lp4766
g0
(g22
g2
Ntp4767
Rp4768
(dp4769
g26
g40
sg28
g4764
sg29
g4768
sg30
(lp4770
g0
(g22
g2
Ntp4771
Rp4772
(dp4773
g26
g45
sg28
g4768
sg29
g4772
sg30
(lp4774
g0
(g22
g2
Ntp4775
Rp4776
(dp4777
g26
g93
sg28
g4772
sg29
g4776
sg30
Nsg51
g52
sg53
Nsbag0
(g22
g2
Ntp4778
Rp4779
(dp4780
g26
g67
sg28
g4772
sg29
g4779
sg30
(lp4781
g0
(g22
g2
Ntp4782
Rp4783
(dp4784
g26
g50
sg28
g4779
sg29
g4783
sg30
Nsg51
g52
sg53
Nsbasg51
g73
sg53
Nsbasg51
g73
sg53
Nsbasg51
g74
sg53
Nsbasg51
g75
sg53
Nsbasg51
g75
sg53
Nsbasg51
g76
sg53
Nsbsg77
F-388.7970449478901
sg78
g79
sg141
Nsg29
g143
sg183
Nsg184
g185
((dp4785
S'b o p'
p4786
I67
sS'b i m'
p4787
I80
sS'b i p'
p4788
I59
sS'i o m'
p4789
I65
sS'b o m'
p4790
I67
sS'i i p'
p4791
I42
sS'i i m'
p4792
I73
sS'i o p'
p4793
I59
stp4794
Rp4795
sg190
F-17.229130459624983
sg191
F1.0
sg192
g193
sg196
Nsg194
g195
sg197
I50
sbsbag0
(g8
g2
Ntp4796
Rp4797
(dp4798
g12
F-1710.9681035529964
sg13
g0
(g14
g2
Ntp4799
Rp4800
(dp4801
g18
F-1710.9681035529964
sg19
Nsg20
F1.0
sg21
g0
(g22
g2
Ntp4802
Rp4803
(dp4804
g26
g27
sg28
Nsg29
g4803
sg30
(lp4805
g0
(g22
g2
Ntp4806
Rp4807
(dp4808
g26
g35
sg28
g4803
sg29
g0
(g22
g2
Ntp4809
Rp4810
g4808
bsg30
(lp4811
g0
(g22
g2
Ntp4812
Rp4813
(dp4814
g26
g40
sg28
g4807
sg29
g4813
sg30
(lp4815
g0
(g22
g2
Ntp4816
Rp4817
(dp4818
g26
g67
sg28
g4813
sg29
g4817
sg30
(lp4819
g0
(g22
g2
Ntp4820
Rp4821
(dp4822
g26
g61
sg28
g4817
sg29
g4821
sg30
Nsg51
g52
sg53
Nsbasg51
g73
sg53
Nsbasg51
g74
sg53
Nsbasg51
g75
sg53
Nsbasg51
g76
sg53
Nsbsg77
F-1708.2600533518942
sg78
g79
sg141
Nsg29
g143
sg183
Nsg184
g185
((dp4823
g61
I512
stp4824
Rp4825
sg190
F-2.7080502011022096
sg191
F1.0
sg192
g193
sg196
Nsg194
g195
sg197
I50
sbsbag0
(g8
g2
Ntp4826
Rp4827
(dp4828
g12
F-430.75200156372284
sg13
g0
(g14
g2
Ntp4829
Rp4830
(dp4831
g18
F-430.75200156372284
sg19
Nsg20
F1.0
sg21
g0
(g22
g2
Ntp4832
Rp4833
(dp4834
g26
g27
sg28
Nsg29
g4833
sg30
(lp4835
g0
(g22
g2
Ntp4836
Rp4837
(dp4838
g26
g136
sg28
g4833
sg29
g4837
sg30
(lp4839
g0
(g22
g2
Ntp4840
Rp4841
(dp4842
g26
g136
sg28
g4837
sg29
g4841
sg30
(lp4843
g0
(g22
g2
Ntp4844
Rp4845
(dp4846
g26
g35
sg28
g4841
sg29
g4845
sg30
(lp4847
g0
(g22
g2
Ntp4848
Rp4849
(dp4850
g26
g40
sg28
g4845
sg29
g4849
sg30
(lp4851
g0
(g22
g2
Ntp4852
Rp4853
(dp4854
g26
g45
sg28
g4849
sg29
g4853
sg30
(lp4855
g0
(g22
g2
Ntp4856
Rp4857
(dp4858
g26
g72
sg28
g4853
sg29
g4857
sg30
Nsg51
g52
sg53
Nsbag0
(g22
g2
Ntp4859
Rp4860
(dp4861
g26
g67
sg28
g4853
sg29
g4860
sg30
(lp4862
g0
(g22
g2
Ntp4863
Rp4864
(dp4865
g26
g61
sg28
g4860
sg29
g4864
sg30
Nsg51
g52
sg53
Nsbasg51
g73
sg53
Nsbasg51
g73
sg53
Nsbasg51
g74
sg53
Nsbasg51
g75
sg53
Nsbag0
(g22
g2
Ntp4866
Rp4867
(dp4868
g26
g35
sg28
g4841
sg29
g4867
sg30
(lp4869
g0
(g22
g2
Ntp4870
Rp4871
(dp4872
g26
g40
sg28
g4867
sg29
g4871
sg30
(lp4873
g0
(g22
g2
Ntp4874
Rp4875
(dp4876
g26
g45
sg28
g4871
sg29
g4875
sg30
(lp4877
g0
(g22
g2
Ntp4878
Rp4879
(dp4880
g26
g107
sg28
g4875
sg29
g4879
sg30
Nsg51
g52
sg53
Nsbag0
(g22
g2
Ntp4881
Rp4882
(dp4883
g26
g45
sg28
g4875
sg29
g4882
sg30
(lp4884
g0
(g22
g2
Ntp4885
Rp4886
(dp4887
g26
g107
sg28
g4882
sg29
g4886
sg30
Nsg51
g52
sg53
Nsbag0
(g22
g2
Ntp4888
Rp4889
(dp4890
g26
g45
sg28
g4882
sg29
g0
(g22
g2
Ntp4891
Rp4892
g4890
bsg30
(lp4893
g0
(g22
g2
Ntp4894
Rp4895
(dp4896
g26
g72
sg28
g4889
sg29
g4895
sg30
Nsg51
g52
sg53
Nsbag0
(g22
g2
Ntp4897
Rp4898
(dp4899
g26
g45
sg28
g4889
sg29
g4898
sg30
(lp4900
g0
(g22
g2
Ntp4901
Rp4902
(dp4903
g26
g72
sg28
g4898
sg29
g4902
sg30
Nsg51
g52
sg53
Nsbag0
(g22
g2
Ntp4904
Rp4905
(dp4906
g26
g67
sg28
g4898
sg29
g4905
sg30
(lp4907
g0
(g22
g2
Ntp4908
Rp4909
(dp4910
g26
g107
sg28
g4905
sg29
g4909
sg30
Nsg51
g52
sg53
Nsbasg51
g73
sg53
Nsbasg51
g73
sg53
Nsbasg51
g73
sg53
Nsbasg51
g73
sg53
Nsbasg51
g73
sg53
Nsbasg51
g74
sg53
Nsbasg51
g75
sg53
Nsbasg51
g75
sg53
Nsbag0
(g22
g2
Ntp4911
Rp4912
(dp4913
g26
g35
sg28
g4837
sg29
g4912
sg30
(lp4914
g0
(g22
g2
Ntp4915
Rp4916
(dp4917
g26
g40
sg28
g4912
sg29
g4916
sg30
(lp4918
g0
(g22
g2
Ntp4919
Rp4920
(dp4921
g26
g45
sg28
g4916
sg29
g4920
sg30
(lp4922
g0
(g22
g2
Ntp4923
Rp4924
(dp4925
g26
g93
sg28
g4920
sg29
g4924
sg30
Nsg51
g52
sg53
Nsbag0
(g22
g2
Ntp4926
Rp4927
(dp4928
g26
g67
sg28
g4920
sg29
g4927
sg30
(lp4929
g0
(g22
g2
Ntp4930
Rp4931
(dp4932
g26
g50
sg28
g4927
sg29
g4931
sg30
Nsg51
g52
sg53
Nsbasg51
g73
sg53
Nsbasg51
g73
sg53
Nsbasg51
g74
sg53
Nsbasg51
g75
sg53
Nsbasg51
g75
sg53
Nsbasg51
g76
sg53
Nsbsg77
F-406.6151158251157
sg78
g79
sg141
Nsg29
g143
sg183
Nsg184
g185
((dp4933
S'b o p'
p4934
I76
sS'b i m'
p4935
I59
sS'i o m'
p4936
I62
sS'b i p'
p4937
I44
sS'b o m'
p4938
I70
sS'i i p'
p4939
I61
sS'i i m'
p4940
I54
sS'i o p'
p4941
I86
stp4942
Rp4943
sg190
F-24.13688573860712
sg191
F1.0
sg192
g193
sg196
Nsg194
g195
sg197
I50
sbsbag0
(g8
g2
Ntp4944
Rp4945
(dp4946
g12
F-468.55764609043683
sg13
g0
(g14
g2
Ntp4947
Rp4948
(dp4949
g18
F-468.55764609043683
sg19
Nsg20
F1.0
sg21
g0
(g22
g2
Ntp4950
Rp4951
(dp4952
g26
g27
sg28
Nsg29
g4951
sg30
(lp4953
g0
(g22
g2
Ntp4954
Rp4955
(dp4956
g26
g136
sg28
g4951
sg29
g4955
sg30
(lp4957
g0
(g22
g2
Ntp4958
Rp4959
(dp4960
g26
g136
sg28
g4955
sg29
g4959
sg30
(lp4961
g0
(g22
g2
Ntp4962
Rp4963
(dp4964
g26
g35
sg28
g4959
sg29
g4963
sg30
(lp4965
g0
(g22
g2
Ntp4966
Rp4967
(dp4968
g26
g40
sg28
g4963
sg29
g4967
sg30
(lp4969
g0
(g22
g2
Ntp4970
Rp4971
(dp4972
g26
g45
sg28
g4967
sg29
g4971
sg30
(lp4973
g0
(g22
g2
Ntp4974
Rp4975
(dp4976
g26
g72
sg28
g4971
sg29
g4975
sg30
Nsg51
g52
sg53
Nsbag0
(g22
g2
Ntp4977
Rp4978
(dp4979
g26
g67
sg28
g4971
sg29
g4978
sg30
(lp4980
g0
(g22
g2
Ntp4981
Rp4982
(dp4983
g26
g61
sg28
g4978
sg29
g4982
sg30
Nsg51
g52
sg53
Nsbasg51
g73
sg53
Nsbasg51
g73
sg53
Nsbasg51
g74
sg53
Nsbasg51
g75
sg53
Nsbag0
(g22
g2
Ntp4984
Rp4985
(dp4986
g26
g35
sg28
g4959
sg29
g4985
sg30
(lp4987
g0
(g22
g2
Ntp4988
Rp4989
(dp4990
g26
g40
sg28
g4985
sg29
g4989
sg30
(lp4991
g0
(g22
g2
Ntp4992
Rp4993
(dp4994
g26
g45
sg28
g4989
sg29
g0
(g22
g2
Ntp4995
Rp4996
g4994
bsg30
(lp4997
g0
(g22
g2
Ntp4998
Rp4999
(dp5000
g26
g107
sg28
g4993
sg29
g4999
sg30
Nsg51
g52
sg53
Nsbag0
(g22
g2
Ntp5001
Rp5002
(dp5003
g26
g45
sg28
g4993
sg29
g5002
sg30
(lp5004
g0
(g22
g2
Ntp5005
Rp5006
(dp5007
g26
g107
sg28
g5002
sg29
g5006
sg30
Nsg51
g52
sg53
Nsbag0
(g22
g2
Ntp5008
Rp5009
(dp5010
g26
g45
sg28
g5002
sg29
g5009
sg30
(lp5011
g0
(g22
g2
Ntp5012
Rp5013
(dp5014
g26
g72
sg28
g5009
sg29
g5013
sg30
Nsg51
g52
sg53
Nsbag0
(g22
g2
Ntp5015
Rp5016
(dp5017
g26
g67
sg28
g5009
sg29
g5016
sg30
(lp5018
g0
(g22
g2
Ntp5019
Rp5020
(dp5021
g26
g93
sg28
g5016
sg29
g5020
sg30
Nsg51
g52
sg53
Nsbasg51
g73
sg53
Nsbasg51
g73
sg53
Nsbasg51
g73
sg53
Nsbasg51
g73
sg53
Nsbasg51
g74
sg53
Nsbasg51
g75
sg53
Nsbasg51
g75
sg53
Nsbag0
(g22
g2
Ntp5022
Rp5023
(dp5024
g26
g35
sg28
g4955
sg29
g5023
sg30
(lp5025
g0
(g22
g2
Ntp5026
Rp5027
(dp5028
g26
g40
sg28
g5023
sg29
g5027
sg30
(lp5029
g0
(g22
g2
Ntp5030
Rp5031
(dp5032
g26
g45
sg28
g5027
sg29
g5031
sg30
(lp5033
g0
(g22
g2
Ntp5034
Rp5035
(dp5036
g26
g93
sg28
g5031
sg29
g5035
sg30
Nsg51
g52
sg53
Nsbag0
(g22
g2
Ntp5037
Rp5038
(dp5039
g26
g67
sg28
g5031
sg29
g5038
sg30
(lp5040
g0
(g22
g2
Ntp5041
Rp5042
(dp5043
g26
g50
sg28
g5038
sg29
g5042
sg30
Nsg51
g52
sg53
Nsbasg51
g73
sg53
Nsbasg51
g73
sg53
Nsbasg51
g74
sg53
Nsbasg51
g75
sg53
Nsbasg51
g75
sg53
Nsbasg51
g76
sg53
Nsbsg77
F-446.72334544482374
sg78
g79
sg141
Nsg29
g143
sg183
Nsg184
g185
((dp5044
S'i p m'
p5045
I37
sS'i o p'
p5046
I71
sS'b i p'
p5047
I37
sS'i o m'
p5048
I61
sS'b p p'
p5049
I28
sS'b o m'
p5050
I51
sS'i i p'
p5051
I31
sS'b o p'
p5052
I75
sS'i i m'
p5053
I34
sS'b p m'
p5054
I24
sS'b i m'
p5055
I40
sS'i p p'
p5056
I23
stp5057
Rp5058
sg190
F-21.834300645613077
sg191
F1.0
sg192
g193
sg196
Nsg194
g195
sg197
I50
sbsbag0
(g8
g2
Ntp5059
Rp5060
(dp5061
g12
F-488.53613272033556
sg13
g0
(g14
g2
Ntp5062
Rp5063
(dp5064
g18
F-488.53613272033556
sg19
Nsg20
F1.0
sg21
g0
(g22
g2
Ntp5065
Rp5066
(dp5067
g26
g27
sg28
Nsg29
g5066
sg30
(lp5068
g0
(g22
g2
Ntp5069
Rp5070
(dp5071
g26
g136
sg28
g5066
sg29
g5070
sg30
(lp5072
g0
(g22
g2
Ntp5073
Rp5074
(dp5075
g26
g136
sg28
g5070
sg29
g5074
sg30
(lp5076
g0
(g22
g2
Ntp5077
Rp5078
(dp5079
g26
g35
sg28
g5074
sg29
g5078
sg30
(lp5080
g0
(g22
g2
Ntp5081
Rp5082
(dp5083
g26
g40
sg28
g5078
sg29
g5082
sg30
(lp5084
g0
(g22
g2
Ntp5085
Rp5086
(dp5087
g26
g45
sg28
g5082
sg29
g5086
sg30
(lp5088
g0
(g22
g2
Ntp5089
Rp5090
(dp5091
g26
g72
sg28
g5086
sg29
g5090
sg30
Nsg51
g52
sg53
Nsbag0
(g22
g2
Ntp5092
Rp5093
(dp5094
g26
g67
sg28
g5086
sg29
g5093
sg30
(lp5095
g0
(g22
g2
Ntp5096
Rp5097
(dp5098
g26
g61
sg28
g5093
sg29
g5097
sg30
Nsg51
g52
sg53
Nsbasg51
g73
sg53
Nsbasg51
g73
sg53
Nsbasg51
g74
sg53
Nsbasg51
g75
sg53
Nsbag0
(g22
g2
Ntp5099
Rp5100
(dp5101
g26
g35
sg28
g5074
sg29
g5100
sg30
(lp5102
g0
(g22
g2
Ntp5103
Rp5104
(dp5105
g26
g40
sg28
g5100
sg29
g5104
sg30
(lp5106
g0
(g22
g2
Ntp5107
Rp5108
(dp5109
g26
g45
sg28
g5104
sg29
g0
(g22
g2
Ntp5110
Rp5111
g5109
bsg30
(lp5112
g0
(g22
g2
Ntp5113
Rp5114
(dp5115
g26
g107
sg28
g5108
sg29
g5114
sg30
Nsg51
g52
sg53
Nsbag0
(g22
g2
Ntp5116
Rp5117
(dp5118
g26
g45
sg28
g5108
sg29
g5117
sg30
(lp5119
g0
(g22
g2
Ntp5120
Rp5121
(dp5122
g26
g72
sg28
g5117
sg29
g5121
sg30
Nsg51
g52
sg53
Nsbag0
(g22
g2
Ntp5123
Rp5124
(dp5125
g26
g67
sg28
g5117
sg29
g5124
sg30
(lp5126
g0
(g22
g2
Ntp5127
Rp5128
(dp5129
g26
g93
sg28
g5124
sg29
g5128
sg30
Nsg51
g52
sg53
Nsbasg51
g73
sg53
Nsbasg51
g73
sg53
Nsbasg51
g73
sg53
Nsbasg51
g74
sg53
Nsbasg51
g75
sg53
Nsbasg51
g75
sg53
Nsbag0
(g22
g2
Ntp5130
Rp5131
(dp5132
g26
g35
sg28
g5070
sg29
g5131
sg30
(lp5133
g0
(g22
g2
Ntp5134
Rp5135
(dp5136
g26
g40
sg28
g5131
sg29
g5135
sg30
(lp5137
g0
(g22
g2
Ntp5138
Rp5139
(dp5140
g26
g45
sg28
g5135
sg29
g5139
sg30
(lp5141
g0
(g22
g2
Ntp5142
Rp5143
(dp5144
g26
g93
sg28
g5139
sg29
g5143
sg30
Nsg51
g52
sg53
Nsbag0
(g22
g2
Ntp5145
Rp5146
(dp5147
g26
g67
sg28
g5139
sg29
g5146
sg30
(lp5148
g0
(g22
g2
Ntp5149
Rp5150
(dp5151
g26
g50
sg28
g5146
sg29
g5150
sg30
Nsg51
g52
sg53
Nsbasg51
g73
sg53
Nsbasg51
g73
sg53
Nsbasg51
g74
sg53
Nsbasg51
g75
sg53
Nsbasg51
g75
sg53
Nsbasg51
g76
sg53
Nsbsg77
F-469.00441716771655
sg78
g79
sg141
Nsg29
g143
sg183
Nsg184
g185
((dp5152
S'i p m'
p5153
I40
sS'i o p'
p5154
I30
sS'i o m'
p5155
I42
sS'b i p'
p5156
I47
sS'b p p'
p5157
I42
sS'b o m'
p5158
I42
sS'i i p'
p5159
I43
sS'b o p'
p5160
I40
sS'i i m'
p5161
I50
sS'b p m'
p5162
I37
sS'b i m'
p5163
I60
sS'i p p'
p5164
I39
stp5165
Rp5166
sg190
F-19.53171555261903
sg191
F1.0
sg192
g193
sg196
Nsg194
g195
sg197
I50
sbsbag0
(g8
g2
Ntp5167
Rp5168
(dp5169
g12
F-287.5744444617083
sg13
g0
(g14
g2
Ntp5170
Rp5171
(dp5172
g18
F-287.5744444617083
sg19
Nsg20
F1.0
sg21
g0
(g22
g2
Ntp5173
Rp5174
(dp5175
g26
g27
sg28
Nsg29
g5174
sg30
(lp5176
g0
(g22
g2
Ntp5177
Rp5178
(dp5179
g26
g136
sg28
g5174
sg29
g5178
sg30
(lp5180
g0
(g22
g2
Ntp5181
Rp5182
(dp5183
g26
g136
sg28
g5178
sg29
g5182
sg30
(lp5184
g0
(g22
g2
Ntp5185
Rp5186
(dp5187
g26
g35
sg28
g5182
sg29
g5186
sg30
(lp5188
g0
(g22
g2
Ntp5189
Rp5190
(dp5191
g26
g40
sg28
g5186
sg29
g5190
sg30
(lp5192
g0
(g22
g2
Ntp5193
Rp5194
(dp5195
g26
g45
sg28
g5190
sg29
g5194
sg30
(lp5196
g0
(g22
g2
Ntp5197
Rp5198
(dp5199
g26
g61
sg28
g5194
sg29
g0
(g22
g2
Ntp5200
Rp5201
g5199
bsg30
Nsg51
g52
sg53
Nsbag0
(g22
g2
Ntp5202
Rp5203
(dp5204
g26
g67
sg28
g5194
sg29
g5203
sg30
(lp5205
g0
(g22
g2
Ntp5206
Rp5207
(dp5208
g26
g61
sg28
g5203
sg29
g5207
sg30
Nsg51
g52
sg53
Nsbasg51
g73
sg53
Nsbasg51
g73
sg53
Nsbasg51
g74
sg53
Nsbasg51
g75
sg53
Nsbag0
(g22
g2
Ntp5209
Rp5210
(dp5211
g26
g35
sg28
g5182
sg29
g5210
sg30
(lp5212
g0
(g22
g2
Ntp5213
Rp5214
(dp5215
g26
g40
sg28
g5210
sg29
g5214
sg30
(lp5216
g0
(g22
g2
Ntp5217
Rp5218
(dp5219
g26
g45
sg28
g5214
sg29
g5218
sg30
(lp5220
g0
(g22
g2
Ntp5221
Rp5222
(dp5223
g26
g107
sg28
g5218
sg29
g5222
sg30
Nsg51
g52
sg53
Nsbag0
(g22
g2
Ntp5224
Rp5225
(dp5226
g26
g67
sg28
g5218
sg29
g5225
sg30
(lp5227
g0
(g22
g2
Ntp5228
Rp5229
(dp5230
g26
g72
sg28
g5225
sg29
g5229
sg30
Nsg51
g52
sg53
Nsbasg51
g73
sg53
Nsbasg51
g73
sg53
Nsbasg51
g74
sg53
Nsbasg51
g75
sg53
Nsbasg51
g75
sg53
Nsbag0
(g22
g2
Ntp5231
Rp5232
(dp5233
g26
g35
sg28
g5178
sg29
g5232
sg30
(lp5234
g0
(g22
g2
Ntp5235
Rp5236
(dp5237
g26
g40
sg28
g5232
sg29
g5236
sg30
(lp5238
g0
(g22
g2
Ntp5239
Rp5240
(dp5241
g26
g45
sg28
g5236
sg29
g5240
sg30
(lp5242
g0
(g22
g2
Ntp5243
Rp5244
(dp5245
g26
g93
sg28
g5240
sg29
g5244
sg30
Nsg51
g52
sg53
Nsbag0
(g22
g2
Ntp5246
Rp5247
(dp5248
g26
g67
sg28
g5240
sg29
g5247
sg30
(lp5249
g0
(g22
g2
Ntp5250
Rp5251
(dp5252
g26
g50
sg28
g5247
sg29
g5251
sg30
Nsg51
g52
sg53
Nsbasg51
g73
sg53
Nsbasg51
g73
sg53
Nsbasg51
g74
sg53
Nsbasg51
g75
sg53
Nsbasg51
g75
sg53
Nsbasg51
g76
sg53
Nsbsg77
F-270.34531400208334
sg78
g79
sg141
Nsg29
g143
sg183
Nsg184
g185
((dp5253
S'b o p'
p5254
I129
sS'b i m'
p5255
I136
sS'b o m'
p5256
I125
sS'b i p'
p5257
I122
stp5258
Rp5259
sg190
F-17.229130459624983
sg191
F1.0
sg192
g193
sg196
Nsg194
g195
sg197
I50
sbsbag0
(g8
g2
Ntp5260
Rp5261
(dp5262
g12
F-560.994720626513
sg13
g0
(g14
g2
Ntp5263
Rp5264
(dp5265
g18
F-560.994720626513
sg19
Nsg20
F1.0
sg21
g0
(g22
g2
Ntp5266
Rp5267
(dp5268
g26
g27
sg28
Nsg29
g5267
sg30
(lp5269
g0
(g22
g2
Ntp5270
Rp5271
(dp5272
g26
g136
sg28
g5267
sg29
g5271
sg30
(lp5273
g0
(g22
g2
Ntp5274
Rp5275
(dp5276
g26
g136
sg28
g5271
sg29
g5275
sg30
(lp5277
g0
(g22
g2
Ntp5278
Rp5279
(dp5280
g26
g35
sg28
g5275
sg29
g5279
sg30
(lp5281
g0
(g22
g2
Ntp5282
Rp5283
(dp5284
g26
g40
sg28
g5279
sg29
g5283
sg30
(lp5285
g0
(g22
g2
Ntp5286
Rp5287
(dp5288
g26
g45
sg28
g5283
sg29
g5287
sg30
(lp5289
g0
(g22
g2
Ntp5290
Rp5291
(dp5292
g26
g72
sg28
g5287
sg29
g5291
sg30
Nsg51
g52
sg53
Nsbag0
(g22
g2
Ntp5293
Rp5294
(dp5295
g26
g67
sg28
g5287
sg29
g5294
sg30
(lp5296
g0
(g22
g2
Ntp5297
Rp5298
(dp5299
g26
g61
sg28
g5294
sg29
g5298
sg30
Nsg51
g52
sg53
Nsbasg51
g73
sg53
Nsbasg51
g73
sg53
Nsbasg51
g74
sg53
Nsbasg51
g75
sg53
Nsbag0
(g22
g2
Ntp5300
Rp5301
(dp5302
g26
g35
sg28
g5275
sg29
g5301
sg30
(lp5303
g0
(g22
g2
Ntp5304
Rp5305
(dp5306
g26
g40
sg28
g5301
sg29
g5305
sg30
(lp5307
g0
(g22
g2
Ntp5308
Rp5309
(dp5310
g26
g45
sg28
g5305
sg29
g5309
sg30
(lp5311
g0
(g22
g2
Ntp5312
Rp5313
(dp5314
g26
g93
sg28
g5309
sg29
g5313
sg30
Nsg51
g52
sg53
Nsbag0
(g22
g2
Ntp5315
Rp5316
(dp5317
g26
g45
sg28
g5309
sg29
g5316
sg30
(lp5318
g0
(g22
g2
Ntp5319
Rp5320
(dp5321
g26
g107
sg28
g5316
sg29
g5320
sg30
Nsg51
g52
sg53
Nsbag0
(g22
g2
Ntp5322
Rp5323
(dp5324
g26
g45
sg28
g5316
sg29
g5323
sg30
(lp5325
g0
(g22
g2
Ntp5326
Rp5327
(dp5328
g26
g72
sg28
g5323
sg29
g5327
sg30
Nsg51
g52
sg53
Nsbag0
(g22
g2
Ntp5329
Rp5330
(dp5331
g26
g67
sg28
g5323
sg29
g5330
sg30
(lp5332
g0
(g22
g2
Ntp5333
Rp5334
(dp5335
g26
g93
sg28
g5330
sg29
g5334
sg30
Nsg51
g52
sg53
Nsbasg51
g73
sg53
Nsbasg51
g73
sg53
Nsbasg51
g73
sg53
Nsbasg51
g73
sg53
Nsbasg51
g74
sg53
Nsbasg51
g75
sg53
Nsbasg51
g75
sg53
Nsbag0
(g22
g2
Ntp5336
Rp5337
(dp5338
g26
g35
sg28
g5271
sg29
g5337
sg30
(lp5339
g0
(g22
g2
Ntp5340
Rp5341
(dp5342
g26
g40
sg28
g5337
sg29
g5341
sg30
(lp5343
g0
(g22
g2
Ntp5344
Rp5345
(dp5346
g26
g45
sg28
g5341
sg29
g0
(g22
g2
Ntp5347
Rp5348
g5346
bsg30
(lp5349
g0
(g22
g2
Ntp5350
Rp5351
(dp5352
g26
g93
sg28
g5345
sg29
g5351
sg30
Nsg51
g52
sg53
Nsbag0
(g22
g2
Ntp5353
Rp5354
(dp5355
g26
g67
sg28
g5345
sg29
g5354
sg30
(lp5356
g0
(g22
g2
Ntp5357
Rp5358
(dp5359
g26
g50
sg28
g5354
sg29
g5358
sg30
Nsg51
g52
sg53
Nsbasg51
g73
sg53
Nsbasg51
g73
sg53
Nsbasg51
g74
sg53
Nsbasg51
g75
sg53
Nsbasg51
g75
sg53
Nsbasg51
g76
sg53
Nsbsg77
F-539.1604199808999
sg78
g79
sg141
Nsg29
g143
sg183
Nsg184
g185
((dp5360
S'i p m'
p5361
I76
sS'i o p'
p5362
I45
sS'i o m'
p5363
I43
sS'b i p'
p5364
I31
sS'b p p'
p5365
I47
sS'i i p'
p5366
I26
sS'b o m'
p5367
I25
sS'b o p'
p5368
I36
sS'i i m'
p5369
I26
sS'b p m'
p5370
I68
sS'b i m'
p5371
I33
sS'i p p'
p5372
I56
stp5373
Rp5374
sg190
F-21.834300645613077
sg191
F1.0
sg192
g193
sg196
Nsg194
g195
sg197
I50
sbsbag0
(g8
g2
Ntp5375
Rp5376
(dp5377
g12
F-869.0760975722701
sg13
g0
(g14
g2
Ntp5378
Rp5379
(dp5380
g18
F-869.0760975722701
sg19
Nsg20
F1.0
sg21
g0
(g22
g2
Ntp5381
Rp5382
(dp5383
g26
g27
sg28
Nsg29
g5382
sg30
(lp5384
g0
(g22
g2
Ntp5385
Rp5386
(dp5387
g26
g136
sg28
g5382
sg29
g5386
sg30
(lp5388
g0
(g22
g2
Ntp5389
Rp5390
(dp5391
g26
g136
sg28
g5386
sg29
g5390
sg30
(lp5392
g0
(g22
g2
Ntp5393
Rp5394
(dp5395
g26
g35
sg28
g5390
sg29
g5394
sg30
(lp5396
g0
(g22
g2
Ntp5397
Rp5398
(dp5399
g26
g40
sg28
g5394
sg29
g5398
sg30
(lp5400
g0
(g22
g2
Ntp5401
Rp5402
(dp5403
g26
g45
sg28
g5398
sg29
g0
(g22
g2
Ntp5404
Rp5405
g5403
bsg30
(lp5406
g0
(g22
g2
Ntp5407
Rp5408
(dp5409
g26
g61
sg28
g5402
sg29
g5408
sg30
Nsg51
g52
sg53
Nsbag0
(g22
g2
Ntp5410
Rp5411
(dp5412
g26
g45
sg28
g5402
sg29
g5411
sg30
(lp5413
g0
(g22
g2
Ntp5414
Rp5415
(dp5416
g26
g61
sg28
g5411
sg29
g5415
sg30
Nsg51
g52
sg53
Nsbag0
(g22
g2
Ntp5417
Rp5418
(dp5419
g26
g67
sg28
g5411
sg29
g5418
sg30
(lp5420
g0
(g22
g2
Ntp5421
Rp5422
(dp5423
g26
g61
sg28
g5418
sg29
g5422
sg30
Nsg51
g52
sg53
Nsbasg51
g73
sg53
Nsbasg51
g73
sg53
Nsbasg51
g73
sg53
Nsbasg51
g74
sg53
Nsbasg51
g75
sg53
Nsbag0
(g22
g2
Ntp5424
Rp5425
(dp5426
g26
g35
sg28
g5390
sg29
g5425
sg30
(lp5427
g0
(g22
g2
Ntp5428
Rp5429
(dp5430
g26
g40
sg28
g5425
sg29
g5429
sg30
(lp5431
g0
(g22
g2
Ntp5432
Rp5433
(dp5434
g26
g67
sg28
g5429
sg29
g5433
sg30
(lp5435
g0
(g22
g2
Ntp5436
Rp5437
(dp5438
g26
g107
sg28
g5433
sg29
g5437
sg30
Nsg51
g52
sg53
Nsbasg51
g73
sg53
Nsbasg51
g74
sg53
Nsbasg51
g75
sg53
Nsbasg51
g75
sg53
Nsbag0
(g22
g2
Ntp5439
Rp5440
(dp5441
g26
g35
sg28
g5386
sg29
g5440
sg30
(lp5442
g0
(g22
g2
Ntp5443
Rp5444
(dp5445
g26
g40
sg28
g5440
sg29
g5444
sg30
(lp5446
g0
(g22
g2
Ntp5447
Rp5448
(dp5449
g26
g67
sg28
g5444
sg29
g5448
sg30
(lp5450
g0
(g22
g2
Ntp5451
Rp5452
(dp5453
g26
g93
sg28
g5448
sg29
g5452
sg30
Nsg51
g52
sg53
Nsbasg51
g73
sg53
Nsbasg51
g74
sg53
Nsbasg51
g75
sg53
Nsbasg51
g75
sg53
Nsbasg51
g76
sg53
Nsbsg77
F-854.1495522056391
sg78
g79
sg141
Nsg29
g143
sg183
Nsg184
g185
((dp5454
S'b o p'
p5455
I512
stp5456
Rp5457
sg190
F-14.92654536663094
sg191
F1.0
sg192
g193
sg196
Nsg194
g195
sg197
I50
sbsbag0
(g8
g2
Ntp5458
Rp5459
(dp5460
g12
F-869.0760975722701
sg13
g0
(g14
g2
Ntp5461
Rp5462
(dp5463
g18
F-869.0760975722701
sg19
Nsg20
F1.0
sg21
g0
(g22
g2
Ntp5464
Rp5465
(dp5466
g26
g27
sg28
Nsg29
g5465
sg30
(lp5467
g0
(g22
g2
Ntp5468
Rp5469
(dp5470
g26
g136
sg28
g5465
sg29
g5469
sg30
(lp5471
g0
(g22
g2
Ntp5472
Rp5473
(dp5474
g26
g136
sg28
g5469
sg29
g5473
sg30
(lp5475
g0
(g22
g2
Ntp5476
Rp5477
(dp5478
g26
g35
sg28
g5473
sg29
g5477
sg30
(lp5479
g0
(g22
g2
Ntp5480
Rp5481
(dp5482
g26
g40
sg28
g5477
sg29
g5481
sg30
(lp5483
g0
(g22
g2
Ntp5484
Rp5485
(dp5486
g26
g67
sg28
g5481
sg29
g5485
sg30
(lp5487
g0
(g22
g2
Ntp5488
Rp5489
(dp5490
g26
g61
sg28
g5485
sg29
g5489
sg30
Nsg51
g52
sg53
Nsbasg51
g73
sg53
Nsbasg51
g74
sg53
Nsbasg51
g75
sg53
Nsbag0
(g22
g2
Ntp5491
Rp5492
(dp5493
g26
g35
sg28
g5473
sg29
g5492
sg30
(lp5494
g0
(g22
g2
Ntp5495
Rp5496
(dp5497
g26
g40
sg28
g5492
sg29
g5496
sg30
(lp5498
g0
(g22
g2
Ntp5499
Rp5500
(dp5501
g26
g45
sg28
g5496
sg29
g0
(g22
g2
Ntp5502
Rp5503
g5501
bsg30
(lp5504
g0
(g22
g2
Ntp5505
Rp5506
(dp5507
g26
g107
sg28
g5500
sg29
g5506
sg30
Nsg51
g52
sg53
Nsbag0
(g22
g2
Ntp5508
Rp5509
(dp5510
g26
g45
sg28
g5500
sg29
g5509
sg30
(lp5511
g0
(g22
g2
Ntp5512
Rp5513
(dp5514
g26
g107
sg28
g5509
sg29
g5513
sg30
Nsg51
g52
sg53
Nsbag0
(g22
g2
Ntp5515
Rp5516
(dp5517
g26
g67
sg28
g5509
sg29
g5516
sg30
(lp5518
g0
(g22
g2
Ntp5519
Rp5520
(dp5521
g26
g107
sg28
g5516
sg29
g5520
sg30
Nsg51
g52
sg53
Nsbasg51
g73
sg53
Nsbasg51
g73
sg53
Nsbasg51
g73
sg53
Nsbasg51
g74
sg53
Nsbasg51
g75
sg53
Nsbasg51
g75
sg53
Nsbag0
(g22
g2
Ntp5522
Rp5523
(dp5524
g26
g35
sg28
g5469
sg29
g5523
sg30
(lp5525
g0
(g22
g2
Ntp5526
Rp5527
(dp5528
g26
g40
sg28
g5523
sg29
g5527
sg30
(lp5529
g0
(g22
g2
Ntp5530
Rp5531
(dp5532
g26
g67
sg28
g5527
sg29
g5531
sg30
(lp5533
g0
(g22
g2
Ntp5534
Rp5535
(dp5536
g26
g93
sg28
g5531
sg29
g5535
sg30
Nsg51
g52
sg53
Nsbasg51
g73
sg53
Nsbasg51
g74
sg53
Nsbasg51
g75
sg53
Nsbasg51
g75
sg53
Nsbasg51
g76
sg53
Nsbsg77
F-854.1495522056391
sg78
g79
sg141
Nsg29
g143
sg183
Nsg184
g185
((dp5537
S'b o p'
p5538
I512
stp5539
Rp5540
sg190
F-14.92654536663094
sg191
F1.0
sg192
g193
sg196
Nsg194
g195
sg197
I50
sbsbag0
(g8
g2
Ntp5541
Rp5542
(dp5543
g12
F-738.5191612475988
sg13
g0
(g14
g2
Ntp5544
Rp5545
(dp5546
g18
F-738.5191612475988
sg19
Nsg20
F1.0
sg21
g0
(g22
g2
Ntp5547
Rp5548
(dp5549
g26
g27
sg28
Nsg29
g5548
sg30
(lp5550
g0
(g22
g2
Ntp5551
Rp5552
(dp5553
g26
g136
sg28
g5548
sg29
g0
(g22
g2
Ntp5554
Rp5555
g5553
bsg30
(lp5556
g0
(g22
g2
Ntp5557
Rp5558
(dp5559
g26
g136
sg28
g5552
sg29
g5558
sg30
(lp5560
g0
(g22
g2
Ntp5561
Rp5562
(dp5563
g26
g35
sg28
g5558
sg29
g5562
sg30
(lp5564
g0
(g22
g2
Ntp5565
Rp5566
(dp5567
g26
g40
sg28
g5562
sg29
g5566
sg30
(lp5568
g0
(g22
g2
Ntp5569
Rp5570
(dp5571
g26
g45
sg28
g5566
sg29
g5570
sg30
(lp5572
g0
(g22
g2
Ntp5573
Rp5574
(dp5575
g26
g72
sg28
g5570
sg29
g5574
sg30
Nsg51
g52
sg53
Nsbag0
(g22
g2
Ntp5576
Rp5577
(dp5578
g26
g45
sg28
g5570
sg29
g5577
sg30
(lp5579
g0
(g22
g2
Ntp5580
Rp5581
(dp5582
g26
g107
sg28
g5577
sg29
g5581
sg30
Nsg51
g52
sg53
Nsbag0
(g22
g2
Ntp5583
Rp5584
(dp5585
g26
g67
sg28
g5577
sg29
g5584
sg30
(lp5586
g0
(g22
g2
Ntp5587
Rp5588
(dp5589
g26
g61
sg28
g5584
sg29
g5588
sg30
Nsg51
g52
sg53
Nsbasg51
g73
sg53
Nsbasg51
g73
sg53
Nsbasg51
g73
sg53
Nsbasg51
g74
sg53
Nsbasg51
g75
sg53
Nsbag0
(g22
g2
Ntp5590
Rp5591
(dp5592
g26
g35
sg28
g5558
sg29
g5591
sg30
(lp5593
g0
(g22
g2
Ntp5594
Rp5595
(dp5596
g26
g40
sg28
g5591
sg29
g5595
sg30
(lp5597
g0
(g22
g2
Ntp5598
Rp5599
(dp5600
g26
g45
sg28
g5595
sg29
g5599
sg30
(lp5601
g0
(g22
g2
Ntp5602
Rp5603
(dp5604
g26
g93
sg28
g5599
sg29
g5603
sg30
Nsg51
g52
sg53
Nsbag0
(g22
g2
Ntp5605
Rp5606
(dp5607
g26
g45
sg28
g5599
sg29
g5606
sg30
(lp5608
g0
(g22
g2
Ntp5609
Rp5610
(dp5611
g26
g107
sg28
g5606
sg29
g5610
sg30
Nsg51
g52
sg53
Nsbag0
(g22
g2
Ntp5612
Rp5613
(dp5614
g26
g45
sg28
g5606
sg29
g5613
sg30
(lp5615
g0
(g22
g2
Ntp5616
Rp5617
(dp5618
g26
g72
sg28
g5613
sg29
g5617
sg30
Nsg51
g52
sg53
Nsbag0
(g22
g2
Ntp5619
Rp5620
(dp5621
g26
g67
sg28
g5613
sg29
g5620
sg30
(lp5622
g0
(g22
g2
Ntp5623
Rp5624
(dp5625
g26
g93
sg28
g5620
sg29
g5624
sg30
Nsg51
g52
sg53
Nsbasg51
g73
sg53
Nsbasg51
g73
sg53
Nsbasg51
g73
sg53
Nsbasg51
g73
sg53
Nsbasg51
g74
sg53
Nsbasg51
g75
sg53
Nsbasg51
g75
sg53
Nsbag0
(g22
g2
Ntp5626
Rp5627
(dp5628
g26
g35
sg28
g5552
sg29
g5627
sg30
(lp5629
g0
(g22
g2
Ntp5630
Rp5631
(dp5632
g26
g40
sg28
g5627
sg29
g5631
sg30
(lp5633
g0
(g22
g2
Ntp5634
Rp5635
(dp5636
g26
g45
sg28
g5631
sg29
g5635
sg30
(lp5637
g0
(g22
g2
Ntp5638
Rp5639
(dp5640
g26
g93
sg28
g5635
sg29
g5639
sg30
Nsg51
g52
sg53
Nsbag0
(g22
g2
Ntp5641
Rp5642
(dp5643
g26
g45
sg28
g5635
sg29
g5642
sg30
(lp5644
g0
(g22
g2
Ntp5645
Rp5646
(dp5647
g26
g61
sg28
g5642
sg29
g5646
sg30
Nsg51
g52
sg53
Nsbag0
(g22
g2
Ntp5648
Rp5649
(dp5650
g26
g67
sg28
g5642
sg29
g5649
sg30
(lp5651
g0
(g22
g2
Ntp5652
Rp5653
(dp5654
g26
g50
sg28
g5649
sg29
g5653
sg30
Nsg51
g52
sg53
Nsbasg51
g73
sg53
Nsbasg51
g73
sg53
Nsbasg51
g73
sg53
Nsbasg51
g74
sg53
Nsbasg51
g75
sg53
Nsbasg51
g75
sg53
Nsbasg51
g76
sg53
Nsbsg77
F-712.0796904159977
sg78
g79
sg141
Nsg29
g143
sg183
Nsg184
g185
((dp5655
S'b i p'
p5656
I15
sS'o i p'
p5657
I17
sS'b o p'
p5658
I19
sS'i i p'
p5659
I20
sS'b i b'
p5660
I13
sS'o i m'
p5661
I17
sS'o i b'
p5662
I14
sS'b i m'
p5663
I11
sS'b p m'
p5664
I25
sS'o o m'
p5665
I12
sS'i p m'
p5666
I26
sS'b o b'
p5667
I17
sS'i o m'
p5668
I12
sS'o p m'
p5669
I36
sS'o p b'
p5670
I31
sS'i o b'
p5671
I14
sS'b p p'
p5672
I26
sS'b o m'
p5673
I16
sS'i p b'
p5674
I28
sS'o o b'
p5675
I16
sS'i i m'
p5676
I15
sS'b p b'
p5677
I15
sS'o p p'
p5678
I30
sS'i o p'
p5679
I19
sS'i p p'
p5680
I28
sS'o o p'
p5681
I4
sS'i i b'
p5682
I16
stp5683
Rp5684
sg190
F-26.43947083160117
sg191
F1.0
sg192
g193
sg196
Nsg194
g195
sg197
I50
sbsbag0
(g8
g2
Ntp5685
Rp5686
(dp5687
g12
F-869.0760975722701
sg13
g0
(g14
g2
Ntp5688
Rp5689
(dp5690
g18
F-869.0760975722701
sg19
Nsg20
F1.0
sg21
g0
(g22
g2
Ntp5691
Rp5692
(dp5693
g26
g27
sg28
Nsg29
g5692
sg30
(lp5694
g0
(g22
g2
Ntp5695
Rp5696
(dp5697
g26
g136
sg28
g5692
sg29
g5696
sg30
(lp5698
g0
(g22
g2
Ntp5699
Rp5700
(dp5701
g26
g136
sg28
g5696
sg29
g5700
sg30
(lp5702
g0
(g22
g2
Ntp5703
Rp5704
(dp5705
g26
g35
sg28
g5700
sg29
g5704
sg30
(lp5706
g0
(g22
g2
Ntp5707
Rp5708
(dp5709
g26
g40
sg28
g5704
sg29
g5708
sg30
(lp5710
g0
(g22
g2
Ntp5711
Rp5712
(dp5713
g26
g67
sg28
g5708
sg29
g5712
sg30
(lp5714
g0
(g22
g2
Ntp5715
Rp5716
(dp5717
g26
g61
sg28
g5712
sg29
g5716
sg30
Nsg51
g52
sg53
Nsbasg51
g73
sg53
Nsbasg51
g74
sg53
Nsbasg51
g75
sg53
Nsbag0
(g22
g2
Ntp5718
Rp5719
(dp5720
g26
g35
sg28
g5700
sg29
g5719
sg30
(lp5721
g0
(g22
g2
Ntp5722
Rp5723
(dp5724
g26
g40
sg28
g5719
sg29
g5723
sg30
(lp5725
g0
(g22
g2
Ntp5726
Rp5727
(dp5728
g26
g67
sg28
g5723
sg29
g5727
sg30
(lp5729
g0
(g22
g2
Ntp5730
Rp5731
(dp5732
g26
g107
sg28
g5727
sg29
g5731
sg30
Nsg51
g52
sg53
Nsbasg51
g73
sg53
Nsbasg51
g74
sg53
Nsbasg51
g75
sg53
Nsbasg51
g75
sg53
Nsbag0
(g22
g2
Ntp5733
Rp5734
(dp5735
g26
g35
sg28
g5696
sg29
g5734
sg30
(lp5736
g0
(g22
g2
Ntp5737
Rp5738
(dp5739
g26
g40
sg28
g5734
sg29
g5738
sg30
(lp5740
g0
(g22
g2
Ntp5741
Rp5742
(dp5743
g26
g45
sg28
g5738
sg29
g0
(g22
g2
Ntp5744
Rp5745
g5743
bsg30
(lp5746
g0
(g22
g2
Ntp5747
Rp5748
(dp5749
g26
g93
sg28
g5742
sg29
g5748
sg30
Nsg51
g52
sg53
Nsbag0
(g22
g2
Ntp5750
Rp5751
(dp5752
g26
g45
sg28
g5742
sg29
g5751
sg30
(lp5753
g0
(g22
g2
Ntp5754
Rp5755
(dp5756
g26
g93
sg28
g5751
sg29
g5755
sg30
Nsg51
g52
sg53
Nsbag0
(g22
g2
Ntp5757
Rp5758
(dp5759
g26
g67
sg28
g5751
sg29
g5758
sg30
(lp5760
g0
(g22
g2
Ntp5761
Rp5762
(dp5763
g26
g93
sg28
g5758
sg29
g5762
sg30
Nsg51
g52
sg53
Nsbasg51
g73
sg53
Nsbasg51
g73
sg53
Nsbasg51
g73
sg53
Nsbasg51
g74
sg53
Nsbasg51
g75
sg53
Nsbasg51
g75
sg53
Nsbasg51
g76
sg53
Nsbsg77
F-854.1495522056391
sg78
g79
sg141
Nsg29
g143
sg183
Nsg184
g185
((dp5764
S'b o p'
p5765
I512
stp5766
Rp5767
sg190
F-14.92654536663094
sg191
F1.0
sg192
g193
sg196
Nsg194
g195
sg197
I50
sbsbag0
(g8
g2
Ntp5768
Rp5769
(dp5770
g12
F-679.6116530577084
sg13
g0
(g14
g2
Ntp5771
Rp5772
(dp5773
g18
F-679.6116530577084
sg19
Nsg20
F1.0
sg21
g0
(g22
g2
Ntp5774
Rp5775
(dp5776
g26
g27
sg28
Nsg29
g5775
sg30
(lp5777
g0
(g22
g2
Ntp5778
Rp5779
(dp5780
g26
g136
sg28
g5775
sg29
g5779
sg30
(lp5781
g0
(g22
g2
Ntp5782
Rp5783
(dp5784
g26
g136
sg28
g5779
sg29
g5783
sg30
(lp5785
g0
(g22
g2
Ntp5786
Rp5787
(dp5788
g26
g35
sg28
g5783
sg29
g5787
sg30
(lp5789
g0
(g22
g2
Ntp5790
Rp5791
(dp5792
g26
g40
sg28
g5787
sg29
g5791
sg30
(lp5793
g0
(g22
g2
Ntp5794
Rp5795
(dp5796
g26
g45
sg28
g5791
sg29
g5795
sg30
(lp5797
g0
(g22
g2
Ntp5798
Rp5799
(dp5800
g26
g72
sg28
g5795
sg29
g5799
sg30
Nsg51
g52
sg53
Nsbag0
(g22
g2
Ntp5801
Rp5802
(dp5803
g26
g45
sg28
g5795
sg29
g5802
sg30
(lp5804
g0
(g22
g2
Ntp5805
Rp5806
(dp5807
g26
g107
sg28
g5802
sg29
g5806
sg30
Nsg51
g52
sg53
Nsbag0
(g22
g2
Ntp5808
Rp5809
(dp5810
g26
g67
sg28
g5802
sg29
g5809
sg30
(lp5811
g0
(g22
g2
Ntp5812
Rp5813
(dp5814
g26
g61
sg28
g5809
sg29
g5813
sg30
Nsg51
g52
sg53
Nsbasg51
g73
sg53
Nsbasg51
g73
sg53
Nsbasg51
g73
sg53
Nsbasg51
g74
sg53
Nsbasg51
g75
sg53
Nsbag0
(g22
g2
Ntp5815
Rp5816
(dp5817
g26
g35
sg28
g5783
sg29
g5816
sg30
(lp5818
g0
(g22
g2
Ntp5819
Rp5820
(dp5821
g26
g40
sg28
g5816
sg29
g5820
sg30
(lp5822
g0
(g22
g2
Ntp5823
Rp5824
(dp5825
g26
g45
sg28
g5820
sg29
g5824
sg30
(lp5826
g0
(g22
g2
Ntp5827
Rp5828
(dp5829
g26
g93
sg28
g5824
sg29
g5828
sg30
Nsg51
g52
sg53
Nsbag0
(g22
g2
Ntp5830
Rp5831
(dp5832
g26
g45
sg28
g5824
sg29
g5831
sg30
(lp5833
g0
(g22
g2
Ntp5834
Rp5835
(dp5836
g26
g107
sg28
g5831
sg29
g5835
sg30
Nsg51
g52
sg53
Nsbag0
(g22
g2
Ntp5837
Rp5838
(dp5839
g26
g45
sg28
g5831
sg29
g5838
sg30
(lp5840
g0
(g22
g2
Ntp5841
Rp5842
(dp5843
g26
g72
sg28
g5838
sg29
g5842
sg30
Nsg51
g52
sg53
Nsbag0
(g22
g2
Ntp5844
Rp5845
(dp5846
g26
g67
sg28
g5838
sg29
g5845
sg30
(lp5847
g0
(g22
g2
Ntp5848
Rp5849
(dp5850
g26
g93
sg28
g5845
sg29
g5849
sg30
Nsg51
g52
sg53
Nsbasg51
g73
sg53
Nsbasg51
g73
sg53
Nsbasg51
g73
sg53
Nsbasg51
g73
sg53
Nsbasg51
g74
sg53
Nsbasg51
g75
sg53
Nsbasg51
g75
sg53
Nsbag0
(g22
g2
Ntp5851
Rp5852
(dp5853
g26
g35
sg28
g5779
sg29
g5852
sg30
(lp5854
g0
(g22
g2
Ntp5855
Rp5856
(dp5857
g26
g40
sg28
g5852
sg29
g5856
sg30
(lp5858
g0
(g22
g2
Ntp5859
Rp5860
(dp5861
g26
g45
sg28
g5856
sg29
g5860
sg30
(lp5862
g0
(g22
g2
Ntp5863
Rp5864
(dp5865
g26
g93
sg28
g5860
sg29
g5864
sg30
Nsg51
g52
sg53
Nsbag0
(g22
g2
Ntp5866
Rp5867
(dp5868
g26
g45
sg28
g5860
sg29
g5867
sg30
(lp5869
g0
(g22
g2
Ntp5870
Rp5871
(dp5872
g26
g93
sg28
g5867
sg29
g0
(g22
g2
Ntp5873
Rp5874
g5872
bsg30
Nsg51
g52
sg53
Nsbag0
(g22
g2
Ntp5875
Rp5876
(dp5877
g26
g67
sg28
g5867
sg29
g5876
sg30
(lp5878
g0
(g22
g2
Ntp5879
Rp5880
(dp5881
g26
g50
sg28
g5876
sg29
g5880
sg30
Nsg51
g52
sg53
Nsbasg51
g73
sg53
Nsbasg51
g73
sg53
Nsbasg51
g73
sg53
Nsbasg51
g74
sg53
Nsbasg51
g75
sg53
Nsbasg51
g75
sg53
Nsbasg51
g76
sg53
Nsbsg77
F-653.1721822261072
sg78
g79
sg141
Nsg29
g143
sg183
Nsg184
g185
((dp5882
S'i i m'
p5883
I14
sS'b i p'
p5884
I31
sS'o i p'
p5885
I20
sS'i i p'
p5886
I27
sS'o i m'
p5887
I17
sS'b i m'
p5888
I14
sS'o p p'
p5889
I46
sS'o o m'
p5890
I14
sS'i p m'
p5891
I42
sS'i o m'
p5892
I19
sS'o p m'
p5893
I30
sS'b p p'
p5894
I45
sS'b o m'
p5895
I11
sS'b o p'
p5896
I27
sS'b p m'
p5897
I25
sS'i o p'
p5898
I35
sS'i p p'
p5899
I66
sS'o o p'
p5900
I29
stp5901
Rp5902
sg190
F-26.43947083160117
sg191
F1.0
sg192
g193
sg196
Nsg194
g195
sg197
I50
sbsbasS'unique_set'
p5903
c__builtin__
set
p5904
((lp5905
g4703
ag3339
ag531
ag887
ag4003
ag1657
ag2189
ag4550
ag843
ag2634
ag2385
ag1019
ag4673
ag1613
ag5772
ag3546
ag1157
ag437
ag3643
ag1194
ag4225
ag1895
ag1795
ag299
ag5689
ag4077
ag487
ag1395
ag3767
ag4362
ag5379
ag1532
ag4506
ag4040
ag1707
ag1268
ag249
ag2604
ag4114
ag1569
ag4312
ag1305
ag3878
ag4948
ag1482
ag4151
ag2263
ag4412
ag793
ag205
ag1845
ag743
ag3204
ag2415
ag2226
ag3680
ag3804
ag1063
ag387
ag1107
ag2999
ag4188
ag669
ag5171
ag3717
ag2139
ag2779
ag2710
ag4636
ag5462
ag1432
ag1231
ag2528
ag4462
ag1751
ag2045
ag2089
ag5063
ag5545
ag975
ag16
ag3104
ag4800
ag706
ag575
ag5264
ag3922
ag4830
ag2452
ag1945
ag2862
ag2892
ag1995
ag931
ag3966
ag3444
ag4275
ag619
ag343
ag3841
atp5906
Rp5907
sS'key'
p5908
g18
sS'N'
p5909
I100
sb.