ccopy_reg
_reconstructor
p0
(cLOTlib.MCMCSummary.TopN
TopN
p1
c__builtin__
object
p2
Ntp3
Rp4
(dp5
S'fbs'
p6
g0
(cLOTlib.Utilities.FiniteBestSet
FiniteBestSet
p7
g2
Ntp8
Rp9
(dp10
S'max_multiplier'
p11
I1
sS'max'
p12
I01
sS'N'
p13
I500
sS'Q'
p14
(lp15
g0
(cLOTlib.Utilities.FiniteBestSet
QueueItem
p16
g2
Ntp17
Rp18
(dp19
S'priority'
p20
F-2.8976680646526027
sS'x'
p21
g0
(cModel.Hypothesis
MyHypothesis
p22
g2
Ntp23
Rp24
(dp25
S'stored_likelihood'
p26
NsS'args'
p27
(lp28
g21
asS'posterior_score'
p29
F-2.8976680646526027
sS'rules_vector'
p30
NsS'likelihood'
p31
F-1.0258658877510116
sS'f'
p32
NsS'grammar'
p33
(iLOTlib.Grammar
Grammar
p34
(dp35
S'rules'
p36
ccollections
defaultdict
p37
(c__builtin__
list
p38
tp39
Rp40
S'START'
p41
(lp42
g0
(cLOTlib.GrammarRule
GrammarRule
p43
g2
Ntp44
Rp45
(dp46
S'to'
p47
(lp48
S'BOOL'
p49
asS'bv_prefix'
p50
NsS'name'
p51
S''
p52
sS'p'
p53
F1.0
sS'self'
p54
g45
sS'nt'
p55
g41
sbasg49
(lp56
g0
(g43
g2
Ntp57
Rp58
(dp59
g47
(lp60
g49
ag49
asg50
Nsg51
S'nand_'
p61
sg53
F0.3333333333333333
sg54
g58
sg55
g49
sbag0
(g43
g2
Ntp62
Rp63
(dp64
g47
(lp65
S'True'
p66
ag49
asg50
Nsg51
g61
sg53
F0.3333333333333333
sg54
g63
sg55
g49
sbag0
(g43
g2
Ntp67
Rp68
(dp69
g47
(lp70
S'False'
p71
ag49
asg50
Nsg51
g61
sg53
F0.3333333333333333
sg54
g68
sg55
g49
sbag0
(g43
g2
Ntp72
Rp73
(dp74
g47
(lp75
g21
aS"'square'"
p76
asg50
Nsg51
S'is_shape_'
p77
sg53
F2.0
sg54
g73
sg55
g49
sbag0
(g43
g2
Ntp78
Rp79
(dp80
g47
(lp81
g21
aS"'triangle'"
p82
asg50
Nsg51
g77
sg53
F2.0
sg54
g79
sg55
g49
sbag0
(g43
g2
Ntp83
Rp84
(dp85
g47
(lp86
g21
aS"'rectangle'"
p87
asg50
Nsg51
g77
sg53
F2.0
sg54
g84
sg55
g49
sbag0
(g43
g2
Ntp88
Rp89
(dp90
g47
(lp91
g21
aS"'blue'"
p92
asg50
Nsg51
S'is_color_'
p93
sg53
F2.0
sg54
g89
sg55
g49
sbag0
(g43
g2
Ntp94
Rp95
(dp96
g47
(lp97
g21
aS"'red'"
p98
asg50
Nsg51
g93
sg53
F2.0
sg54
g95
sg55
g49
sbag0
(g43
g2
Ntp99
Rp100
(dp101
g47
(lp102
g21
aS"'green'"
p103
asg50
Nsg51
g93
sg53
F2.0
sg54
g100
sg55
g49
sbassg54
g34
sS'rule_count'
p104
I10
sS'start'
p105
g41
sS'BV_P'
p106
F10.0
sS'bv_count'
p107
I0
sbsg105
Nsg54
g0
(g22
g2
Ntp108
Rp109
(dp110
g27
g28
sg29
F-38.23093581464988
sg30
NsS'likelihood_temperature'
p111
F1.0
sS'maxnodes'
p112
I25
sg31
F-36.35913363774829
sg33
g34
sg26
Nsg54
g109
sg32
NsS'value'
p113
g0
(cLOTlib.FunctionNode
FunctionNode
p114
g2
Ntp115
Rp116
(dp117
g51
g52
sS'parent'
p118
Nsg54
g116
sg27
(lp119
g0
(g114
g2
Ntp120
Rp121
(dp122
g51
g77
sg118
g116
sg54
g121
sg27
(lp123
g21
ag87
asS'returntype'
p124
g49
sS'added_rule'
p125
Nsbasg124
g41
sg125
Nsbsg105
NsS'prior_temperature'
p126
F1.0
sS'kwargs'
p127
(dp128
sS'ALPHA'
p129
F0.9
sS'prior'
p130
F-1.8718021769015913
sS'fvalue'
p131
Nsbsg111
F1.0
sg113
g0
(g114
g2
Ntp132
Rp133
(dp134
g51
g52
sg118
Nsg54
g133
sg27
(lp135
g0
(g114
g2
Ntp136
Rp137
(dp138
g51
g77
sg118
g133
sg54
g0
(g114
g2
Ntp139
Rp140
g138
bsg27
(lp141
g21
ag76
asg124
g49
sg125
Nsbasg124
g41
sg125
Nsbsg112
I25
sg126
F1.0
sg127
g128
sg129
F0.9
sg130
F-1.8718021769015913
sg131
NsbsbasS'unique_set'
p142
c__builtin__
set
p143
((lp144
g24
atp145
Rp146
sS'key'
p147
g29
sbsS'count'
p148
I1
sg54
g4
sg13
I500
sS'thin'
p149
I1
sg147
g29
sb.